(lp1
V\uff0c
aV\u3002
aV\u6625
aV\u65b0
aV\u9f99
aV\u82b1
aV\u559c
aV\u540c
aV\u98ce
aV\u5bb6
aV\u5fc3
aV\u5e74
aV\u65e5
aV\u51e4
aV\u95e8
aV\u4eba
aV\u5f00
aV\u5c45
aV\u53cc
aV\u798f
aV\u98de
aV\u5408
aV\u5730
aV\u7231
aV\u60c5
aV\u597d
aV\u5c71
aV\u4e50
aV\u5802
aV\u767e
aV\u71d5
aV\u5929
aV\u6708
aV\u5bf9
aV\u957f
aV\u5e76
aV\u817e
aV\u610f
aV\u534e
aV\u7ed3
aV\u7389
aV\u5927
aV\u7ea2
aV\u9ad8
aV\u91d1
aV\u6c34
aV\u6709
aV\u8fc1
aV\u5171
aV\u4e00
aV\u821e
aV\u6d77
aV\u6210
aV\u5149
aV\u8482
aV\u5343
aV\u548c
aV\u8fce
aV\u5fd7
aV\u679d
aV\u4e1a
aV\u4e16
aV\u5e86
aV\u6b22
aV\u7f8e
aV\u6c14
aV\u5982
aV\u5fb7
aV\u83ba
aV\u65f6
aV\u6b4c
aV\u7f18
aV\u91cc
aV\u6bd4
aV\u4e0a
aV\u5ead
aV\u4e2d
aV\u9e3e
aV\u8272
aV\u7ee3
aV\u56fd
aV\u6ee1
aV\u8fde
aV\u826f
aV\u5c81
aV\u4e3d
aV\u65e0
aV\u8054
aV\u6c38
aV\u6237
aV\u5b87
aV\u5e38
aV\u864e
aV\u751f
aV\u67f3
aV\u7406
aV\u56db
aV\u7965
aV\u4e91
aV\u9e33
aV\u5409
aV\u4f73
aV\u5b85
aV\u5b89
aV\u6696
aV\u4eca
aV\u9526
aV\u795e
aV\u4e07
aV\u6843
aV\u4f3c
aV\u5a5a
aV\u7ffc
aV\u6620
aV\u5174
aV\u524d
aV\u8dc3
aV\u745e
aV\u6811
aV\u9752
aV\u5f69
aV\u76f8
aV\u7167
aV\u56fe
aV\u623f
aV\u4e8b
aV\u6885
aV\u6b23
aV\u4e34
aV\u4e54
aV\u6765
aV\u697c
aV\u73e0
aV\u9e2f
aV\u753b
aV\u7eff
aV\u680b
aV\u9152
aV\u5e78
aV\u9633
aV\u676f
aV\u9e1f
aV\u9999
aV\u9053
aV\u4eb2
aV\u591a
aV\u8bed
aV\u6dfb
aV\u6816
aV\u4e3a
aV\u4fa3
aV\u53cb
aV\u5eb7
aV\u52e4
aV\u7709
aV\u4e0d
aV\u58ee
aV\u5973
aV\u76db
aV\u5bbe
aV\u5934
aV\u7a97
aV\u58f0
aV\u79cb
aV\u79c0
aV\u5efa
aV\u4ec1
aV\u6b65
aV\u7434
aV\u6b63
aV\u4e92
aV\u6587
aV\u4f34
aV\u9f50
aV\u7b2c
aV\u4e45
aV\u7b11
aV\u4e09
aV\u6842
aV\u59fb
aV\u671d
aV\u5bff
aV\u78a7
aV\u7d2b
aV\u94f6
aV\u65e7
aV\u6d1e
aV\u4e24
aV\u65b9
aV\u6b64
aV\u83b2
aV\u8f89
aV\u521b
aV\u5986
aV\u5c55
aV\u6069
aV\u5706
aV\u70db
aV\u77e5
aV\u4e94
aV\u5dde
aV\u666f
aV\u5170
aV\u8282
aV\u6e05
aV\u6784
aV\u771f
aV\u7eaa
aV\u624d
aV\u91cd
aV\u96e8
aV\u660e
aV\u4fed
aV\u6df1
aV\u5c4b
aV\u5b8f
aV\u62a5
aV\u4e5d
aV\u590f
aV\u5ea6
aV\u7fe0
aV\u6795
aV\u6cb3
aV\u90bb
aV\u9a6c
aV\u5bd2
aV\u5076
aV\u592b
aV\u5c0f
aV\u624b
aV\u6653
aV\u5e73
aV\u9022
aV\u5f52
aV\u5f97
aV\u82b3
aV\u9662
aV\u74a7
aV\u6c11
aV\u5ba4
aV\u81ea
aV\u8fb0
aV\u6000
aV\u66f4
aV\u59bb
aV\u521d
aV\u5230
aV\u53d1
aV\u9e23
aV\u6c5f
aV\u4f5c
aV\u7bab
aV\u4e39
aV\u53f0
aV\u6dd1
aV\u7b14
aV\u66f2
aV\u4e30
aV\u97f3
aV\u706f
aV\u805a
aV\u4e66
aV\u8d77
aV\u5b9d
aV\u661f
aV\u604b
aV\u96c5
aV\u5bcc
aV\u79fb
aV\u5b9c
aV\u8fb9
aV\u7acb
aV\u53a6
aV\u89c2
aV\u76c8
aV\u65fa
aV\u51f0
aV\u5947
aV\u5410
aV\u534a
aV\u589e
aV\u6728
aV\u5e10
aV\u52b3
aV\u6797
aV\u51fa
aV\u96ea
aV\u8c03
aV\u662f
aV\u9e4f
aV\u4f55
aV\u6881
aV\u8212
aV\u7f14
aV\u535c
aV\u5411
aV\u594b
aV\u68a7
aV\u884c
aV\u677e
aV\u542f
aV\u80dc
aV\u5728
aV\u80fd
aV\u9189
aV\u5ea7
aV\u9762
aV\u5148
aV\u56ed
aV\u99a8
aV\u5c31
aV\u8c61
aV\u767d
aV\u8fd1
aV\u5b66
aV\u9c7c
aV\u4e0b
aV\u8c37
aV\u4e3b
aV\u745f
aV\u5f71
aV\u5904
aV\u955c
aV\u770b
aV\u843d
aV\u8fd0
aV\u5055
aV\u7075
aV\u8000
aV\u8302
aV\u9614
aV\u5916
aV\u65e9
aV\u4e14
aV\u96c4
aV\u987b
aV\u5173
aV\u8bd7
aV\u5165
aV\u84ec
aV\u5439
aV\u7fd4
aV\u5357
aV\u516b
aV\u79f0
aV\u8d3a
aV\u6614
aV\u674e
aV\u90ce
aV\u5987
aV\u79a7
aV\u77f3
aV\u519c
aV\u683d
aV\u4ece
aV\u7531
aV\u5bb5
aV\u8363
aV\u5531
aV\u7762
aV\u871c
aV\u7686
aV\u63cf
aV\u5bb4
aV\u53e4
aV\u7275
aV\u8d22
aV\u5bb9
aV\u7766
aV\u8c10
aV\u68a6
aV\u8273
aV\u751c
aV\u4f20
aV\u5e26
aV\u5154
aV\u6770
aV\u7af9
aV\u987a
aV\u613f
aV\u60ca
aV\u594f
aV\u7269
aV\u8c08
aV\u575a
aV\u8bdd
aV\u97f5
aV\u5176
aV\u5a07
aV\u9996
aV\u5ba2
aV\u6735
aV\u6539
aV\u57fa
aV\u8001
aV\u9704
aV\u9e4a
aV\u82cd
aV\u7ef5
aV\u820d
aV\u8896
aV\u674f
aV\u5e55
aV\u5b81
aV\u529b
aV\u8c31
aV\u4e58
aV\u6d6a
aV\u51ed
aV\u9a70
aV\u7a0b
aV\u5c4f
aV\u7b51
aV\u4f09
aV\u591c
aV\u793c
aV\u8def
aV\u51ac
aV\u80b2
aV\u56fa
aV\u76ee
aV\u95f4
aV\u660c
aV\u60f3
aV\u5782
aV\u82f1
aV\u542b
aV\u6d41
aV\u6500
aV\u70b9
aV\u5374
aV\u4e1d
aV\u679c
aV\u5609
aV\u8fdc
aV\u56e2
aV\u5f81
aV\u5185
aV\u4fea
aV\u732e
aV\u5b9e
aV\u96c0
aV\u5f53
aV\u8fdb
aV\u7537
aV\u5b63
aV\u5146
aV\u5f3a
aV\u7fc5
aV\u5448
aV\u8f66
aV\u86df
aV\u95f9
aV\u5e84
aV\u5f15
aV\u4ea4
aV\u4e1c
aV\u7559
aV\u6734
aV\u7ebf
aV\u9001
aV\u7cbe
aV\u6d53
aV\u6ea2
aV\u5de8
aV\u707f
aV\u5e18
aV\u541f
aV\u968f
aV\u50ac
aV\u8d35
aV\u9047
aV\u795d
aV\u53f6
aV\u5954
aV\u8e1e
aV\u5207
aV\u5e2e
aV\u5b50
aV\u6768
aV\u9882
aV\u4e8e
aV\u9f13
aV\u8de8
aV\u9a8f
aV\u6cbb
aV\u670b
aV\u5de7
aV\u996e
aV\u620f
aV\u8bda
aV\u7b75
aV\u743c
aV\u8d4b
aV\u80af
aV\u70df
aV\u4f46
aV\u4ee3
aV\u8776
aV\u6d3b
aV\u7b19
aV\u4e4b
aV\u4fbf
aV\u8c8c
aV\u656c
aV\u9601
aV\u5d07
aV\u5229
aV\u7efe
aV\u4f1a
aV\u9e9f
aV\u653e
aV\u76cf
aV\u7956
aV\u6362
aV\u9e64
aV\u8bbe
aV\u9e3f
aV\u79e6
aV\u7a77
aV\u5177
aV\u67af
aV\u84c9
aV\u665a
aV\u5317
aV\u5fc5
aV\u4f1f
aV\u5c24
aV\u7eb3
aV\u8336
aV\u6b66
aV\u8f6e
aV\u626c
aV\u989c
aV\u7f9e
aV\u4f59
aV\u7ae0
aV\u9a7b
aV\u4e89
aV\u8c0a
aV\u4f18
aV\u5c3a
aV\u9042
aV\u9636
aV\u65cf
aV\u7554
aV\u916c
aV\u8bfb
aV\u6a21
aV\u552f
aV\u70c2
aV\u8377
aV\u85cf
aV\u8fd8
aV\u5c65
aV\u66fe
aV\u94fa
aV\u4f9d
aV\u961c
aV\u7fbd
aV\u8bd5
aV\u9e66
aV\u6da6
aV\u58a8
aV\u5168
aV\u6cf0
aV\u6295
aV\u73af
aV\u59d3
aV\u5b64
aV\u5fe7
aV\u8d70
aV\u81f3
aV\u95fb
aV\u632f
aV\u534f
aV\u99a5
aV\u63a9
aV\u5ddd
aV\u65ed
aV\u67f1
aV\u79cd
aV\u52a8
aV\u9e49
aV\u8349
aV\u51cc
aV\u5de2
aV\u767b
aV\u8299
aV\u582a
aV\u5cad
aV\u72b9
aV\u7ed8
aV\u754c
aV\u773c
aV\u6cfd
aV\u90c1
aV\u4fd7
aV\u7984
aV\u8651
aV\u82de
aV\u6d89
aV\u7eaf
aV\u6b32
aV\u840f
aV\u9b42
aV\u5960
aV\u6bcd
aV\u6850
aV\u5468
aV\u58eb
aV\u5e0f
aV\u9970
aV\u7b49
aV\u7ec8
aV\u5cb8
aV\u664b
aV\u8dbe
aV\u89c6
aV\u4fca
aV\u4e4d
aV\u6d69
aV\u7efd
aV\u706b
aV\u5e7f
aV\u540e
aV\u9759
aV\u6d93
aV\u6301
aV\u8da3
aV\u9aa8
aV\u8db3
aV\u6cb9
aV\u7eb7
aV\u5f0f
aV\u5764
aV\u4e8c
aV\u5578
aV\u822c
aV\u5e9a
aV\u90a6
aV\u723d
aV\u68cb
aV\u6c49
aV\u73cd
aV\u69d0
aV\u51e0
aV\u95fa
aV\u9675
aV\u5c04
aV\u800c
aV\u548f
aV\u7693
aV\u851a
aV\u949f
aV\u8ba1
aV\u83b1
aV\u683c
aV\u6240
aV\u5942
aV\u7b56
aV\u63e1
aV\u7fe9
aV\u5668
aV\u8301
aV\u5e03
aV\u6837
aV\u5f20
aV\u9976
aV\u4f4f
aV\u53d6
aV\u76d8
aV\u725b
aV\u4eae
aV\u626b
aV\u8877
aV\u7b80
aV\u5b57
aV\u659f
aV\u62b1
aV\u4e3e
aV\u89c7
aV\u6717
aV\u8d64
aV\u6beb
aV\u8c6a
aV\u62f1
aV\u5a01
aV\u5907
aV\u5740
aV\u6211
aV\u5723
aV\u6e29
aV\u4e49
aV\u904d
aV\u8d4f
aV\u539a
aV\u836b
aV\u5f02
aV\u6697
aV\u631a
aV\u97ad
aV\u6292
aV\u6848
aV\u6c60
aV\u96f7
aV\u7cfb
aV\u8109
aV\u5b9a
aV\u9ec4
aV\u6325
aV\u5949
aV\u7ba1
aV\u98d8
aV\u6f6d
aV\u4e7e
aV\u8f7d
aV\u5c06
aV\u6491
aV\u6559
aV\u4fa7
aV\u80a9
aV\u5df2
aV\u7530
aV\u5bbf
aV\u8fc7
aV\u8d50
aV\u58c1
aV\u53ef
aV\u7a7a
aV\u53ea
aV\u5143
aV\u5ab3
aV\u5a77
aV\u4ea6
aV\u4ed3
aV\u5e02
aV\u8eab
aV\u6b3e
aV\u83e1
aV\u814a
aV\u5854
aV\u5de5
aV\u76ca
aV\u4fe1
aV\u4efb
aV\u89c4
aV\u501f
aV\u6db2
aV\u67b6
aV\u6cbc
aV\u4fe6
aV\u9edb
aV\u8baf
aV\u8c22
aV\u96c1
aV\u6c42
aV\u87e0
aV\u690d
aV\u971c
aV\u5b58
aV\u9760
aV\u5cb3
aV\u62e9
aV\u51ef
aV\u9a7e
aV\u841d
aV\u6f2b
aV\u6d47
aV\u53c8
aV\u671f
aV\u4e61
aV\u6ce2
aV\u5bf8
aV\u522b
aV\u897f
aV\u5b54
aV\u8981
aV\u5f85
aV\u77d7
aV\u547d
aV\u5e8f
aV\u6302
aV\u7b85
aV\u69db
aV\u9020
aV\u9aa7
aV\u88ab
aV\u672a
aV\u6f5c
aV\u5bbd
aV\u89c1
aV\u7840
aV\u9644
aV\u503e
aV\u6d4e
aV\u5fd8
aV\u76df
aV\u62e5
aV\u8870
aV\u6cf3
aV\u63fd
aV\u6101
aV\u53e0
aV\u8986
aV\u4e43
aV\u5999
aV\u5217
aV\u6a3d
aV\u5bc6
aV\u82ac
aV\u8d1e
aV\u66dc
aV\u73c2
aV\u6247
aV\u8bba
aV\u4e5f
aV\u8fea
aV\u72ec
aV\u7c73
aV\u83f2
aV\u9002
aV\u5583
aV\u7c89
aV\u918b
aV\u8499
aV\u829d
aV\u7528
aV\u6bb7
aV\u9036
aV\u7538
aV\u9b3c
aV\u640f
aV\u88c1
aV\u5e8a
aV\u6846
aV\u7ed5
aV\u57df
aV\u4ee5
aV\u7834
aV\u8df3
aV\u7fc1
aV\u9980
aV\u9896
aV\u4f0f
aV\u9990
aV\u5a92
aV\u4e15
aV\u8f94
aV\u6021
aV\u664f
aV\u51b0
aV\u5c5e
aV\u52b2
aV\u51c0
aV\u5347
aV\u80c6
aV\u6851
aV\u9769
aV\u5462
aV\u83dc
aV\u684c
aV\u64de
aV\u8fe4
aV\u5367
aV\u4eea
aV\u8f6f
aV\u5377
aV\u6bd5
aV\u8a00
aV\u52aa
aV\u8d85
aV\u4e08
aV\u60ec
aV\u5316
aV\u971e
aV\u7b26
aV\u8fa9
aV\u6dc5
aV\u5c60
aV\u9648
aV\u854a
aV\u5ed3
aV\u85d5
aV\u62db
aV\u4e0e
aV\u51dd
aV\u8d3b
aV\u9664
aV\u6691
aV\u60e7
aV\u8bc6
aV\u8ff9
aV\u5386
aV\u8d8a
aV\u590d
aV\u6a90
aV\u6613
aV\u5992
aV\u9f19
aV\u5df1
aV\u501a
aV\u857e
aV\u5fae
aV\u4eac
aV\u5f39
aV\u523b
aV\u70bc
aV\u6674
aV\u9e43
aV\u6545
aV\u914d
aV\u8361
aV\u95ea
aV\u8d53
aV\u4fee
aV\u4eff
aV\u83ab
aV\u7206
aV\u508d
aV\u8403
aV\u5b9b
aV\u989d
aV\u6fb3
aV\u7236
aV\u53bb
aV\u8d44
aV\u7a46
aV\u82d1
aV\u8fd3
aV\u7535
aV\u4ed9
aV\u5021
aV\u5360
aV\u6ce5
aV\u7ecf
aV\u8d74
aV\u663e
aV\u5703
aV\u8c05
aV\u5584
aV\u5a31
aV\u500d
aV\u5415
aV\u6296
aV\u88c5
aV\u731b
aV\u68a2
aV\u7425
aV\u66ae
aV\u73b0
aV\u653f
aV\u67f4
aV\u73c0
aV\u6743
aV\u8fc8
aV\u5251
aV\u63d0
aV\u4f53
aV\u8ba2
aV\u5cf0
aV\u6750
aV\u867d
aV\u5bd3
aV\u6177
aV\u5e2d
aV\u7fe5
aV\u5e87
aV\u4f8d
aV\u62ac
aV\u529f
aV\u5404
aV\u57f9
aV\u54ab
aV\u70b3
aV\u8bb2
aV\u8d24
aV\u6536
aV\u793e
aV\u65c1
aV\u5237
aV\u5760
aV\u82cf
aV\u594e
aV\u6cb8
aV\u535a
aV\u6de1
aV\u53e5
aV\u7aef
aV\u7470
aV\u5112
aV\u537a
aV\u8ffd
aV\u52ff
aV\u6d01
aV\u5e94
aV\u4e01
aV\u8c0b
aV\u5c14
aV\u6043
aV\u516c
aV\u5f92
aV\u9898
aV\u821f
aV\u8d21
aV\u8d1f
aV\u8033
aV\u82b9
aV\u53ca
aV\u5f18
aV\u91ce
aV\u6c57
aV\u62d4
aV\u5bfb
aV\u8863
aV\u90fd
aV\u4f26
aV\u60a6
aV\u6979
aV\u80f8
aV\u76fc
aV\u627f
aV\u79fe
aV\u6602
aV\u6d9b
aV\u521a
aV\u539f
aV\u8584
aV\u6ca1
aV\u62dc
aV\u8f88
aV\u5938
aV\u523a
aV\u94c1
aV\u9e42
aV\u65cb
aV\u6e38
aV\u56dd
aV\u675c
aV\u82e5
aV\u59d1
aV\u6168
aV\u526a
aV\u8f6c
aV\u7476
aV\u5178
aV\u5f7c
aV\u887e
aV\u7816
aV\u9707
aV\u5988
aV\u6170
aV\u7b94
aV\u4f17
aV\u5a9a
aV\u9171
aV\u94a6
aV\u5029
aV\u8346
aV\u56f4
aV\u7441
aV\u5747
aV\u89c8
aV\u964d
aV\u7579
aV\u7f57
aV\u7cd6
aV\u5b5f
aV\u9163
aV\u5ce6
aV\u8bf4
aV\u68b3
aV\u9014
aV\u5b99
aV\u5a18
aV\u7fa1
aV\u6ca7
aV\u5f26
aV\u9690
aV\u642c
aV\u54c1
aV\u7532
aV\u4f36
aV\u628a
aV\u660a
aV\u62d3
aV\u515a
aV\u98df
aV\u4e60
aV\u7ae3
aV\u7eeb
aV\u513f
aV\u7701
aV\u7c07
aV\u8f86
aV\u900f
aV\u5e90
aV\u7115
aV\u6f6e
aV\u749c
aV\u4ff1
aV\u7c27
aV\u8bae
aV\u6b62
aV\u6c47
aV\u6751
aV\u76d0
aV\u5955
aV\u9ea6
aV\u8457
aV\u5b59
aV\u556d
aV\u4ef0
aV\u6cfc
aV\u807f
aV\u8bfe
aV\u6a2a
aV\u5e06
aV\u000a
aV\u4e03
aV\u672c
aV\u6597
aV\u6e58
aV\u781a
aV\u719f
aV\u55a7
aV\u52a9
aV\u5473
aV\u73b3
aV\u9504
aV\u5636
aV\u7740
aV\u52c9
aV\u804a
aV\u64cd
aV\u6bd3
aV\u9a76
aV\u6e56
aV\u84dd
aV\u77eb
aV\u82e6
aV\u94ed
aV\u6df7
aV\u5915
aV\u7ffb
aV\u503c
aV\u59ff
aV\u7b03
aV\u5c82
aV\u6d8c
aV\u8015
aV\u529e
aV\u94a2
aV\u5e08
aV\u8317
aV\u7ea6
aV\u9cb2
aV\u6148
aV\u7239
aV\u59cb
aV\u6fc0
aV\u52a0
aV\u4ed6
aV\u7259
aV\u8f7b
aV\u9065
aV\u75be
aV\u65ec
aV\u81f4
aV\u5ef6
aV\u5f7b
a.