(lp1
V\u3002
aV\u6211
aV\u7684
aV\u4f60
aV\u4e0d
aV\u4e00
aV\u6709
aV\u662f
aV\uff0c
aV\u4eba
aV\u7231
aV\u5728
aV\u4e86
aV\u4f1a
aV\u5230
aV\u8981
aV\u4e2a
aV\u8fc7
aV\u8fd9
aV\u4e48
aV\u6ca1
aV\u5fc3
aV\u5929
aV\u60f3
aV\u5f97
aV\u4e5f
aV\u5c31
aV\u4e3a
aV\u53bb
aV\u90fd
aV\u591a
aV\u90a3
aV\u6765
aV\u53ef
aV\u7740
aV\u8c01
aV\u80fd
aV\u4ed6
aV\u65e0
aV\u53ea
aV\u81ea
aV\u4e0a
aV\u65f6
aV\u597d
aV\u4eec
aV\u518d
aV\u91cc
aV\u5f00
aV\u5982
aV\u60c5
aV\u770b
aV\u4e0b
aV\u8ba9
aV\u4f55
aV\u8fd8
aV\u8bf4
aV\u6700
aV\u8d70
aV\u548c
aV\u5927
aV\u540e
aV\u751f
aV\u592a
aV\u522b
aV\u5df2
aV\u8d77
aV\u672a
aV\u77e5
aV\u4ee5
aV\u7ed9
aV\u5bf9
aV\u624b
aV\u96be
aV\u9053
aV\u4ec0
aV\u773c
aV\u53c8
aV\u6015
aV\u5730
aV\u611f
aV\u604b
aV\u89c1
aV\u600e
aV\u6837
aV\u5b50
aV\u5931
aV\u5f88
aV\u51fa
aV\u56de
aV\u4f46
aV\u4e16
aV\u660e
aV\u5f53
aV\u5feb
aV\u4e2d
aV\u5e74
aV\u5c0f
aV\u5934
aV\u7136
aV\u65e5
aV\u5df1
aV\u624d
aV\u50cf
aV\u771f
aV\u8def
aV\u653e
aV\u4f24
aV\u7b11
aV\u7b49
aV\u5bb6
aV\u505a
aV\u5149
aV\u6c14
aV\u8eab
aV\u6bd4
aV\u4e8e
aV\u7ecf
aV\u5374
aV\u4e8b
aV\u95f4
aV\u5c06
aV\u53d8
aV\u9762
aV\u7f8e
aV\u671b
aV\u5206
aV\u76f8
aV\u4e50
aV\u613f
aV\u82e6
aV\u79bb
aV\u4e0e
aV\u95ee
aV\u603b
aV\u4ece
aV\u767d
aV\u5fc5
aV\u6210
aV\u7528
aV\u53d1
aV\u5979
aV\u610f
aV\u65b9
aV\u7559
aV\u591c
aV\u751a
aV\u591f
aV\u5b9e
aV\u679c
aV\u7b97
aV\u56e0
aV\u4fbf
aV\u6cea
aV\u82b1
aV\u98ce
aV\u5fd8
aV\u6240
aV\u5c11
aV\u88ab
aV\u4ea6
aV\u524d
aV\u6d3b
aV\u4fe1
aV\u6b4c
aV\u800c
aV\u559c
aV\u754c
aV\u89c9
aV\u7ec8
aV\u5207
aV\u627e
aV\u4e9b
aV\u66f4
aV\u58f0
aV\u6b22
aV\u66fe
aV\u8bb0
aV\u62b1
aV\u54e6
aV\u51e0
aV\u91cd
aV\u628a
aV\u8f66
aV\u8fdc
aV\u53d7
aV\u68a6
aV\u9ad8
aV\u4eb2
aV\u6d41
aV\u547d
aV\u5317
aV\u62e5
aV\u9700
aV\u7ed3
aV\u52a8
aV\u9519
aV\u5b83
aV\u4e24
aV\u8fb9
aV\u7406
aV\u82e5
aV\u8272
aV\u6708
aV\u6625
aV\u5988
aV\u6c38
aV\u73b0
aV\u70b9
aV\u5168
aV\u9633
aV\u529b
aV\u957f
aV\u54ed
aV\u7a7a
aV\u5e73
aV\u6cd5
aV\u542c
aV\u4eae
aV\u8ffd
aV\u4e4b
aV\u79cd
aV\u5531
aV\u4eac
aV\u6389
aV\u4f7f
aV\u5bc2
aV\u4e8c
aV\u5b9a
aV\u4ecd
aV\u6253
aV\u53cb
aV\u4f5c
aV\u540c
aV\u661f
aV\u96e8
aV\u5427
aV\u4f3c
aV\u6b21
aV\u75db
aV\u8bdd
aV\u5bde
aV\u6b64
aV\u6c89
aV\u6c34
aV\u5e78
aV\u706b
aV\u8f7b
aV\u5f85
aV\u5f80
aV\u5176
aV\u8ddf
aV\u6e05
aV\u72ec
aV\u8bb2
aV\u6216
aV\u5019
aV\u5f71
aV\u539f
aV\u6bcf
aV\u53e3
aV\u798f
aV\u5b89
aV\u968f
aV\u4eca
aV\u7cfb
aV\u8fdb
aV\u53eb
aV\u5973
aV\u5171
aV\u521d
aV\u505c
aV\u8863
aV\u843d
aV\u573a
aV\u61c2
aV\u98de
aV\u8be5
aV\u8ba4
aV\u8bb8
aV\u6b7b
aV\u8d8a
aV\u51b7
aV\u5355
aV\u4e3d
aV\u8bf7
aV\u5173
aV\u54ea
aV\u8005
aV\u6362
aV\u4f4f
aV\u6068
aV\u5e26
aV\u95e8
aV\u9752
aV\u543b
aV\u65b0
aV\u821e
aV\u8fd0
aV\u6ee1
aV\u5e95
aV\u5b66
aV\u8bc6
aV\u5c3d
aV\u7761
aV\u59cb
aV\u671f
aV\u523b
aV\u6f2b
aV\u4f4e
aV\u6d77
aV\u5b69
aV\u5b8c
aV\u5411
aV\u5ff5
aV\u7537
aV\u7167
aV\u5c4b
aV\u8f6c
aV\u753b
aV\u62c9
aV\u6e29
aV\u8138
aV\u76f4
aV\u65e9
aV\u5f20
aV\u70e6
aV\u5341
aV\u51ac
aV\u620f
aV\u7edd
aV\u4e3b
aV\u4ee4
aV\u5fae
aV\u7531
aV\u5148
aV\u8c22
aV\u5373
aV\u5165
aV\u9192
aV\u81f3
aV\u8c13
aV\u9759
aV\u5916
aV\u5473
aV\u554a
aV\u5f03
aV\u5904
aV\u6b63
aV\u5e94
aV\u665a
aV\u5750
aV\u6563
aV\u5440
aV\u7adf
aV\u5438
aV\u5077
aV\u9ed1
aV\u8857
aV\u5fcd
aV\u5b64
aV\u5bb9
aV\u70ed
aV\u8fd1
aV\u6e38
aV\u884c
aV\u975e
aV\u4ee3
aV\u7d2f
aV\u62ff
aV\u6000
aV\u5047
aV\u5426
aV\u6c42
aV\u513f
aV\u89d2
aV\u5408
aV\u9047
aV\u4f4d
aV\u602a
aV\u7ad9
aV\u65c1
aV\u672c
aV\u9760
aV\u96ea
aV\u8868
aV\u627f
aV\u89e3
aV\u751c
aV\u7269
aV\u8001
aV\u97f3
aV\u96f6
aV\u4e45
aV\u5e76
aV\u795e
aV\u7247
aV\u5c81
aV\u5f69
aV\u5bfb
aV\u4f9d
aV\u88f3
aV\u7d27
aV\u966a
aV\u7ba1
aV\u60dc
aV\u60b2
aV\u5403
aV\u4efb
aV\u5417
aV\u706f
aV\u670b
aV\u4e4e
aV\u53cc
aV\u4fa3
aV\u8fde
aV\u96f7
aV\u62c5
aV\u987e
aV\u6781
aV\u811a
aV\u9ebb
aV\u5462
aV\u4eab
aV\u820d
aV\u6811
aV\u5404
aV\u6d6a
aV\u80cc
aV\u76ee
aV\u6562
aV\u7b2c
aV\u9ed8
aV\u8ff7
aV\u559d
aV\u4f34
aV\u8282
aV\u6697
aV\u6df1
aV\u6597
aV\u88c5
aV\u5b63
aV\u9001
aV\u56db
aV\u5fc6
aV\u63d0
aV\u9999
aV\u8c08
aV\u8db3
aV\u8df3
aV\u4e09
aV\u4e1c
aV\u7a7f
aV\u8bc9
aV\u5f3a
aV\u8a00
aV\u95ea
aV\u871c
aV\u7ea2
aV\u4f53
aV\u8bd5
aV\u5185
aV\u7ec6
aV\u5174
aV\u7f6a
aV\u914d
aV\u7279
aV\u5e38
aV\u590d
aV\u6570
aV\u695a
aV\u547c
aV\u84dd
aV\u673a
aV\u6f14
aV\u63a5
aV\u5bb3
aV\u897f
aV\u9634
aV\u67d4
aV\u7535
aV\u544a
aV\u9189
aV\u53ca
aV\u6b65
aV\u52a0
aV\u8d75
aV\u8d34
aV\u4e07
aV\u626e
aV\u8bed
aV\u5ea6
aV\u73a9
aV\u8037
aV\u7275
aV\u53cd
aV\u5f15
aV\u6d88
aV\u54ce
aV\u5fe7
aV\u8457
aV\u91cf
aV\u50bb
aV\u79cb
aV\u6bcd
aV\u907f
aV\u5fd9
aV\u607c
aV\u6613
aV\u6a21
aV\u8c61
aV\u775b
aV\u6302
aV\u51e1
aV\u95f9
aV\u6559
aV\u5f52
aV\u7238
aV\u606f
aV\u4e71
aV\u89c2
aV\u9000
aV\u5316
aV\u9014
aV\u6325
aV\u7834
aV\u56f4
aV\u6212
aV\u5409
aV\u53f0
aV\u8bba
aV\u98d8
aV\u5e02
aV\u70df
aV\u6ef4
aV\u59d0
aV\u793c
aV\u8d5b
aV\u5e7b
aV\u62cd
aV\u5de5
aV\u5566
aV\u4f17
aV\u5357
aV\u8361
aV\u5e72
aV\u5c71
aV\u4ea4
aV\u6267
aV\u5dee
aV\u5b57
aV\u949f
aV\u6628
aV\u521b
aV\u8d25
aV\u8bc1
aV\u4e60
aV\u65e7
aV\u7b54
aV\u7ebf
aV\u538b
aV\u8d1f
aV\u832b
aV\u5f7c
aV\u80af
aV\u4e70
aV\u7ea6
aV\u5229
aV\u60ca
aV\u575a
aV\u51ed
aV\u697c
aV\u4efd
aV\u8010
aV\u6170
aV\u51b0
aV\u5b81
aV\u6728
aV\u7b80
aV\u51c9
aV\u9009
aV\u9020
aV\u59d1
aV\u987b
aV\u7cbe
aV\u574f
aV\u57ce
aV\u53f6
aV\u4fdd
aV\u6218
aV\u60ef
aV\u504f
aV\u8f9b
aV\u540d
aV\u8840
aV\u6789
aV\u9152
aV\u886c
aV\u5594
aV\u90e8
aV\u66f2
aV\u6447
aV\u590f
aV\u6478
aV\u60a0
aV\u7f3a
aV\u6076
aV\u9886
aV\u516b
aV\u6162
aV\u8865
aV\u53d6
aV\u795d
aV\u516c
aV\u521a
aV\u62a5
aV\u4e91
aV\u5343
aV\u7a97
aV\u8e0f
aV\u9996
aV\u8349
aV\u51b2
aV\u7a81
aV\u534a
aV\u4ef7
aV\u7eed
aV\u5bbd
aV\u9664
aV\u865a
aV\u5076
aV\u5439
aV\u5c14
aV\u6301
aV\u8d35
aV\u9f13
aV\u4e49
aV\u6298
aV\u4ef0
aV\u805a
aV\u8eaf
aV\u503c
aV\u8f83
aV\u7f20
aV\u7c73
aV\u7518
aV\u72c2
aV\u7236
aV\u552f
aV\u70c2
aV\u5199
aV\u76d6
aV\u6027
aV\u6b8b
aV\u51b3
aV\u64e6
aV\u5a18
aV\u955c
aV\u666f
aV\u9910
aV\u538c
aV\u79d2
aV\u4e89
aV\u6682
aV\u6696
aV\u6c99
aV\u54bf
aV\u5f39
aV\u5012
aV\u767e
aV\u788e
aV\u6c57
aV\u6539
aV\u706d
aV\u8dd1
aV\u6324
aV\u8a93
aV\u6d12
aV\u901a
aV\u654c
aV\u52c7
aV\u5956
aV\u62d2
aV\u8ba1
aV\u677e
aV\u4f20
aV\u5802
aV\u77f3
aV\u623f
aV\u60e8
aV\u5a5a
aV\u8c8c
aV\u75b2
aV\u7075
aV\u6297
aV\u6e34
aV\u7eff
aV\u75d2
aV\u6545
aV\u9986
aV\u62d6
aV\u7ee7
aV\u8f86
aV\u8e2a
aV\u5ba2
aV\u51bb
aV\u8f6f
aV\u70e7
aV\u4f59
aV\u8d81
aV\u76fc
aV\u56fd
aV\u6d17
aV\u660f
aV\u9e1f
aV\u514d
aV\u5c5e
aV\u683c
aV\u7cca
aV\u6536
aV\u4e92
aV\u6ca6
aV\u7741
aV\u9ec4
aV\u7801
aV\u5370
aV\u75f4
aV\u5899
aV\u903c
aV\u6094
aV\u6f6e
aV\u5b58
aV\u6e21
aV\u67d0
aV\u4ef6
aV\u6b32
aV\u67af
aV\u72e0
aV\u6bdb
aV\u6bb5
aV\u8eb2
aV\u65ad
aV\u900f
aV\u9ea6
aV\u7720
aV\u54cd
aV\u7c92
aV\u9010
aV\u91d1
aV\u8131
aV\u5026
aV\u543e
aV\u601d
aV\u6f02
aV\u5e0c
aV\u8bda
aV\u95fb
aV\u5fe0
aV\u7eb5
aV\u5634
aV\u5605
aV\u5e8a
aV\u5356
aV\u5201
aV\u5907
aV\u5947
aV\u9003
aV\u670d
aV\u62a4
aV\u6025
aV\u5c18
aV\u9a6c
aV\u62fc
aV\u731c
aV\u60d1
aV\u7272
aV\u571f
aV\u6668
aV\u6311
aV\u6291
aV\u6b20
aV\u5435
aV\u5c45
aV\u5883
aV\u8d76
aV\u94b1
aV\u76db
aV\u501f
aV\u88e4
aV\u6055
aV\u822c
aV\u6101
aV\u5c3e
aV\u73cd
aV\u676f
aV\u8bf1
aV\u4e88
aV\u7403
aV\u5236
aV\u652f
aV\u6743
aV\u5c55
aV\u6797
aV\u727a
aV\u7ffb
aV\u59ff
aV\u6674
aV\u963f
aV\u7a77
aV\u6307
aV\u6eda
aV\u75d5
aV\u8f6e
aV\u7eb8
aV\u6cc4
aV\u6371
aV\u6daf
aV\u9669
aV\u94bb
aV\u52bf
aV\u804a
aV\u78b0
aV\u638c
aV\u9057
aV\u5385
aV\u77ed
aV\u5305
aV\u810f
aV\u7eaf
aV\u6b62
aV\u7070
aV\u66ff
aV\u8d39
aV\u633d
aV\u51c6
aV\u9897
aV\u8877
aV\u91c7
aV\u529f
aV\u4f62
aV\u61be
aV\u70c8
aV\u6551
aV\u80a9
aV\u5fd7
aV\u7cd6
aV\u58ee
aV\u719f
aV\u4e61
aV\u6ce2
aV\u80dc
aV\u7eaa
aV\u672f
aV\u7eea
aV\u6280
aV\u6c5f
aV\u8bef
aV\u6717
aV\u99a8
aV\u6f47
aV\u9aa8
aV\u978b
aV\u64ad
aV\u4f5b
aV\u594b
aV\u675f
aV\u629b
aV\u82f1
aV\u51cf
aV\u7591
aV\u62b5
aV\u7ae5
aV\u5f77
aV\u8089
aV\u6572
aV\u987a
aV\u6fc0
aV\u594f
aV\u5bf8
aV\u6e7f
aV\u83b7
aV\u82cd
aV\u85b0
aV\u7bb1
aV\u85cf
aV\u5e9e
aV\u8679
aV\u54c0
aV\u54c1
aV\u5948
aV\u5757
aV\u732e
aV\u5f31
aV\u5145
aV\u9ef1
aV\u6323
aV\u888b
aV\u6795
aV\u58eb
aV\u6392
aV\u6f0f
aV\u5e05
aV\u7ec3
aV\u5386
aV\u558a
aV\u80c6
aV\u8d4f
aV\u9732
aV\u813e
aV\u9898
aV\u8bfa
aV\u6652
aV\u867d
aV\u8d62
aV\u9884
aV\u6b23
aV\u8000
aV\u6599
aV\u6cb3
aV\u8d5e
aV\u626c
aV\u62ac
aV\u5178
aV\u53f7
aV\u514b
aV\u5a9a
aV\u64c5
aV\u94fa
aV\u5ea7
aV\u964c
aV\u5ffd
aV\u5561
aV\u5de6
aV\u7c7b
aV\u4e5d
aV\u56e2
aV\u534e
aV\u8bde
aV\u4f30
aV\u5954
aV\u5239
aV\u5468
aV\u6735
aV\u886b
aV\u6001
aV\u8dc3
aV\u6982
aV\u7a0b
aV\u9e23
aV\u4ed8
aV\u788d
aV\u8c05
aV\u8033
aV\u6446
aV\u5978
aV\u5fcc
aV\u5766
aV\u5269
aV\u73ed
aV\u4e94
aV\u53c2
aV\u738b
aV\u89e6
aV\u667a
aV\u9002
aV\u75af
aV\u5df4
aV\u563f
aV\u5496
aV\u77ac
aV\u6e10
aV\u98df
aV\u95ed
aV\u6761
aV\u65e2
aV\u7184
aV\u5b88
aV\u8ba8
aV\u79c1
aV\u9b42
aV\u5e84
aV\u8111
aV\u8da3
aV\u5347
aV\u7434
aV\u8ff9
aV\u5c1a
aV\u6127
aV\u5e97
aV\u6028
aV\u6de1
aV\u6295
aV\u9707
aV\u6ecb
aV\u9b54
aV\u5192
aV\u60eb
aV\u8986
aV\u89c6
aV\u51f6
aV\u8499
aV\u8fdf
aV\u8180
aV\u4f1f
aV\u56fa
aV\u5360
aV\u54e5
aV\u5723
aV\u94c1
aV\u91ce
aV\u78e8
aV\u5b54
aV\u708e
aV\u629a
aV\u4e1d
aV\u964d
aV\u8ddd
aV\u7b7e
aV\u7f13
aV\u57cb
aV\u95f7
aV\u90c1
aV\u642d
aV\u59d4
aV\u5f7b
aV\u9694
aV\u6247
aV\u5acc
aV\u8d85
aV\u6d45
aV\u9a84
aV\u54aa
aV\u671d
aV\u5fb7
aV\u52aa
aV\u635f
aV\u68ee
aV\u89c5
aV\u60b4
aV\u767b
aV\u4ec1
aV\u5c48
aV\u4eff
aV\u5a07
aV\u5986
aV\u9971
aV\u7ef4
aV\u5806
aV\u62a2
aV\u51c0
aV\u83cc
aV\u8d2a
aV\u8336
aV\u989c
aV\u516d
aV\u8f93
aV\u526f
aV\u5481
aV\u71c3
aV\u906e
aV\u60f9
aV\u70ae
aV\u4ecb
aV\u5497
aV\u6ca7
aV\u67b6
aV\u63e3
aV\u82bd
aV\u5e86
aV\u5c1d
aV\u8239
aV\u4e8f
aV\u8352
aV\u6ce3
aV\u5f04
aV\u8d23
aV\u5306
aV\u996d
aV\u9177
aV\u8822
aV\u515c
aV\u6491
aV\u6dcb
aV\u8d60
aV\u52b3
aV\u91ca
aV\u62e9
aV\u53f3
aV\u6194
aV\u63a8
aV\u4fca
aV\u57fa
aV\u6c49
aV\u5bfc
aV\u62ab
aV\u7206
aV\u65c5
aV\u5992
aV\u7709
aV\u7738
aV\u80a0
aV\u904d
aV\u793e
aV\u53e5
aV\u6602
aV\u5bbf
aV\u7968
aV\u9178
aV\u950b
aV\u836f
aV\u4ef2
aV\u809a
aV\u8106
aV\u6d6e
aV\u8c03
aV\u6e2f
aV\u5eb7
aV\u51fb
aV\u8896
aV\u7fa4
aV\u6bc1
aV\u788c
aV\u8d44
aV\u9713
aV\u59b9
aV\u90ae
aV\u6148
aV\u54d1
aV\u8e48
aV\u609f
aV\u6349
aV\u62c8
aV\u8273
aV\u5ef6
aV\u72d7
aV\u59c6
aV\u4ed4
aV\u6ce8
aV\u7c89
aV\u8d28
aV\u6cbf
aV\u6b66
aV\u640f
aV\u6a90
aV\u4e13
aV\u7f9e
aV\u5c0a
aV\u4e3e
aV\u614c
aV\u95ef
aV\u6276
aV\u5a31
aV\u7f1d
aV\u4e27
aV\u827a
aV\u632b
aV\u8212
aV\u5b09
aV\u80a4
aV\u4f51
aV\u62b9
aV\u624e
aV\u4e66
aV\u4e11
aV\u901f
aV\u6050
aV\u961f
aV\u54c8
aV\u586b
aV\u53f2
aV\u6cb9
aV\u5f2f
aV\u52b2
aV\u9635
aV\u9648
aV\u8bf6
aV\u8d64
aV\u50b2
aV\u6167
aV\u5475
aV\u5f02
aV\u996e
aV\u971c
aV\u6ce1
aV\u6839
aV\u8d4b
aV\u79d8
aV\u8650
aV\u8054
aV\u8c37
aV\u6751
aV\u74dc
aV\u52c9
aV\u5984
aV\u529e
aV\u4fa0
aV\u8dcc
aV\u724c
aV\u6cf3
aV\u5bd2
aV\u5e7f
aV\u5e55
aV\u5377
aV\u7a91
aV\u65af
aV\u4f88
aV\u6cca
aV\u6350
aV\u987d
aV\u4ec7
aV\u5e7c
aV\u6e9c
aV\u9677
aV\u9662
aV\u8f9c
aV\u632f
aV\u53e4
aV\u7ffc
aV\u730e
aV\u53f9
aV\u6084
aV\u5915
aV\u5815
aV\u5065
aV\u96fe
aV\u9614
aV\u66b4
aV\u5cb8
aV\u4e1a
aV\u641e
aV\u6548
aV\u9876
aV\u723d
aV\u4e58
aV\u8d5a
aV\u5962
aV\u4e03
aV\u501a
aV\u7728
aV\u67f3
aV\u679d
aV\u6234
aV\u5f62
aV\u6109
aV\u6089
aV\u6108
aV\u503e
aV\u4fd7
aV\u641c
aV\u7d22
aV\u9650
aV\u6d82
aV\u9690
aV\u707f
aV\u5ba3
aV\u52a9
aV\u820c
aV\u70ab
aV\u4f2a
aV\u786e
aV\u96c4
aV\u5499
aV\u70c1
aV\u7ef5
aV\u5b9c
aV\u9645
aV\u6851
aV\u8de8
aV\u52ab
aV\u75c5
aV\u9a70
aV\u6321
aV\u4ffe
aV\u73ab
aV\u63a0
aV\u76ae
aV\u654f
aV\u65cf
aV\u536b
aV\u72af
aV\u76d7
aV\u5782
aV\u618e
aV\u5949
aV\u80f8
aV\u8d50
aV\u79fb
aV\u6dfb
aV\u6c11
aV\u5e1d
aV\u634f
aV\u8e29
aV\u6620
aV\u892a
aV\u86cb
aV\u62e3
aV\u51cc
aV\u5144
aV\u5ac9
aV\u94ed
aV\u5219
aV\u6279
aV\u6c7d
aV\u5589
aV\u94f6
aV\u9488
aV\u901b
aV\u535c
aV\u4f0f
aV\u6469
aV\u6bd5
aV\u677f
aV\u786c
aV\u5e03
aV\u7f18
aV\u519c
aV\u6251
aV\u5957
aV\u5c40
aV\u5546
aV\u7470
aV\u7a1a
aV\u5ead
aV\u7530
aV\u9a9a
aV\u5bc4
aV\u55f0
aV\u7f16
aV\u63a9
aV\u545c
aV\u6155
aV\u95f2
aV\u6750
aV\u6df7
aV\u6492
aV\u74e3
aV\u8d1e
aV\u51cb
aV\u7ed5
aV\u6beb
aV\u51a0
aV\u6b47
aV\u9f7f
aV\u6444
aV\u8df5
aV\u6807
aV\u5361
aV\u7565
aV\u508d
aV\u52a1
aV\u5524
aV\u83ab
aV\u666e
aV\u606d
aV\u4f73
aV\u5893
aV\u6742
aV\u6848
aV\u611a
aV\u52e4
aV\u7f55
aV\u7b14
aV\u504e
aV\u5e3d
aV\u62da
aV\u6f06
aV\u6756
aV\u636e
aV\u866b
aV\u987f
aV\u8681
aV\u6740
aV\u68f5
aV\u8303
aV\u55cc
aV\u53f8
aV\u997f
aV\u5f25
aV\u62dc
aV\u5267
aV\u5212
aV\u4ec5
aV\u5f0f
aV\u83dc
aV\u573e
aV\u7acb
aV\u8270
aV\u53a6
aV\u5351
aV\u53e6
aV\u5514
aV\u8109
aV\u763e
aV\u4ed9
aV\u5ba0
aV\u7455
aV\u7eb7
aV\u8d56
aV\u6073
aV\u8baf
aV\u5938
aV\u88d9
aV\u526a
aV\u5ba4
aV\u54a6
aV\u8747
aV\u67dc
aV\u7ea0
aV\u8d2d
aV\u7965
aV\u8e81
aV\u6587
aV\u8feb
aV\u75bc
aV\u5e9f
aV\u8f88
aV\u9644
aV\u7edf
aV\u5217
aV\u8dbe
aV\u6bd2
aV\u840e
aV\u7a9d
aV\u80a1
aV\u9970
aV\u5598
aV\u5200
aV\u5e08
aV\u5c34
aV\u804c
aV\u8bd1
aV\u7cdf
aV\u63e1
aV\u9a91
aV\u578b
aV\u9017
aV\u50ac
aV\u8fbe
aV\u5bc6
aV\u5783
aV\u989d
aV\u57c3
aV\u8bfb
aV\u5584
aV\u5c9b
aV\u8d26
aV\u82cf
aV\u58f3
aV\u9501
aV\u539a
aV\u593a
aV\u56ed
aV\u71ac
aV\u4f11
aV\u9c9c
aV\u54ac
aV\u5974
aV\u8d27
aV\u51c4
aV\u7259
aV\u8363
aV\u8d4e
aV\u76df
aV\u7c98
aV\u9006
aV\u8c0e
aV\u519b
aV\u62bd
aV\u8150
aV\u6d78
aV\u9a82
aV\u5e45
aV\u817b
aV\u7a00
aV\u8d3a
aV\u51dd
aV\u8fce
aV\u61d2
aV\u5371
aV\u5187
aV\u6012
aV\u739b
aV\u8fa3
aV\u8d24
aV\u5ac1
aV\u67d3
aV\u6ce5
aV\u731b
aV\u901d
aV\u6b3a
aV\u6254
aV\u7aef
aV\u63aa
aV\u673d
aV\u9b45
aV\u4e22
aV\u98d9
aV\u6168
aV\u653b
aV\u7f57
aV\u77dc
aV\u7389
aV\u5c2c
aV\u51b5
aV\u56f0
aV\u4ea1
aV\u76b1
aV\u7e41
aV\u96c6
aV\u6865
aV\u507f
aV\u76cf
aV\u6c88
aV\u5d29
aV\u9e3f
aV\u5dfe
aV\u7891
aV\u6930
aV\u9b3c
aV\u7262
aV\u62c2
aV\u4e08
aV\u6458
aV\u851a
aV\u7b26
aV\u4e34
aV\u9012
aV\u889c
aV\u5623
aV\u7f29
aV\u60ac
aV\u7a3b
aV\u626b
aV\u758f
aV\u8d9f
aV\u9022
aV\u7cd5
aV\u500d
aV\u6296
aV\u7aa6
aV\u5fa8
aV\u7caa
aV\u61ac
aV\u53e0
aV\u5177
aV\u5224
aV\u8fdd
aV\u51f9
aV\u8305
aV\u5f92
aV\u6c1b
aV\u58a8
aV\u8d31
aV\u7a76
aV\u826f
aV\u6500
aV\u523a
aV\u59d3
aV\u7efd
aV\u5c51
aV\u6b89
aV\u8c1c
aV\u5f26
aV\u642c
aV\u8fb1
aV\u5c3c
aV\u846c
aV\u602f
aV\u6b49
aV\u7f51
aV\u5761
aV\u8a89
aV\u718f
aV\u7b28
aV\u72b9
aV\u6dc7
aV\u69df
aV\u5ae9
aV\u656c
aV\u8f70
aV\u5378
aV\u672b
aV\u6d47
aV\u74e2
aV\u9493
aV\u9050
aV\u5976
aV\u9a8c
aV\u5999
aV\u829c
aV\u98a0
aV\u83f2
aV\u72fc
aV\u6816
aV\u8bd7
aV\u8086
aV\u4e9a
aV\u649e
aV\u9e25
aV\u6635
aV\u5bcc
aV\u67f4
aV\u517b
aV\u780c
aV\u8f99
aV\u584c
aV\u5366
aV\u5668
aV\u821b
aV\u4e43
aV\u9769
aV\u717d
aV\u7b20
aV\u7eb9
aV\u644a
aV\u6574
aV\u9a76
aV\u626d
aV\u533b
aV\u88c2
aV\u62c6
aV\u76fe
aV\u5760
aV\u5254
aV\u4ed7
aV\u65f1
aV\u7ef7
aV\u5490
aV\u5792
aV\u6e17
aV\u56bc
aV\u547b
aV\u8d2b
aV\u8bc4
aV\u53d4
aV\u6487
aV\u7791
aV\u5195
aV\u59a5
aV\u82b3
aV\u793a
aV\u8fc1
aV\u8b66
aV\u6670
aV\u62f3
aV\u6309
aV\u818a
aV\u8e22
aV\u5f8b
aV\u6e56
aV\u9065
aV\u6770
aV\u5df7
aV\u5651
aV\u81f4
aV\u808b
aV\u4e14
aV\u722c
aV\u6d3e
aV\u67e5
aV\u6b92
aV\u6237
aV\u5141
aV\u664f
aV\u7978
aV\u5b5d
aV\u5b87
aV\u67cf
aV\u90bb
aV\u80e1
aV\u8be7
aV\u6cbe
aV\u7eca
aV\u6d53
aV\u6d4e
aV\u8377
aV\u8424
aV\u674e
aV\u7280
aV\u808c
aV\u759a
aV\u7545
aV\u77ee
aV\u8236
aV\u643a
aV\u8d54
aV\u6ee9
aV\u8f68
aV\u634b
aV\u9a71
aV\u5e87
aV\u878d
aV\u60a3
aV\u6cbb
aV\u535a
aV\u9888
aV\u542b
aV\u5cf0
aV\u8f7d
aV\u4fa7
aV\u73af
aV\u6bbf
aV\u65cb
aV\u7267
aV\u776c
aV\u6b3e
aV\u9edb
aV\u5582
aV\u5319
aV\u53ae
aV\u7a33
aV\u5243
aV\u6263
aV\u766b
aV\u9a73
aV\u80a5
aV\u73e0
aV\u64cd
aV\u6ed1
aV\u79df
aV\u988a
aV\u8815
aV\u5398
aV\u5f1b
aV\u5835
aV\u7ade
aV\u7981
aV\u54b3
aV\u6ee5
aV\u6df9
aV\u5509
aV\u67aa
aV\u8e4b
aV\u4e4f
aV\u63d2
aV\u7387
aV\u541e
aV\u63a7
aV\u64a9
aV\u4fcf
aV\u9980
aV\u8513
aV\u6821
aV\u4e25
aV\u592b
aV\u79c0
aV\u76ca
aV\u8861
aV\u60e6
aV\u7b56
aV\u8eba
aV\u6c64
aV\u60e7
aV\u7f6e
aV\u541f
aV\u6653
aV\u61a7
aV\u5e2e
aV\u663e
aV\u6052
aV\u68a2
aV\u6a61
aV\u592e
aV\u715e
aV\u969c
aV\u6627
aV\u5ba1
aV\u88f8
aV\u7089
aV\u9632
aV\u79c3
aV\u9b44
aV\u8015
aV\u5c01
aV\u5431
aV\u5c41
aV\u7747
aV\u6069
aV\u76f2
aV\u5706
aV\u7c97
aV\u5b99
aV\u6fa1
aV\u6726
aV\u6270
aV\u72c8
aV\u9a97
aV\u6f20
aV\u6328
aV\u5cad
aV\u5348
aV\u77db
aV\u6790
aV\u6eb6
aV\u8651
aV\u6d89
aV\u4f0a
aV\u6d1e
aV\u6f5c
aV\u4fb5
aV\u63ed
aV\u8870
aV\u5faa
aV\u9e9f
aV\u5237
aV\u5951
aV\u5f55
aV\u62ec
aV\u6401
aV\u6f2a
aV\u8682
aV\u6016
aV\u88b1
aV\u80c1
aV\u75e3
aV\u5578
aV\u59fb
aV\u6784
aV\u9496
aV\u7a92
aV\u5e15
aV\u7fc5
aV\u5851
aV\u7fd4
aV\u5de8
aV\u59a8
aV\u7802
aV\u4f1e
aV\u9e3d
aV\u6643
aV\u84c4
aV\u7b51
aV\u95fa
aV\u79a7
aV\u66d9
aV\u73bb
aV\u72e1
aV\u60ed
aV\u7f15
aV\u6380
aV\u8703
aV\u6405
aV\u8584
aV\u518c
aV\u699c
aV\u75a4
aV\u66ae
aV\u6a31
aV\u6241
aV\u8083
aV\u631a
aV\u68b3
aV\u533a
aV\u7237
aV\u6d46
aV\u6cdb
aV\u7f62
aV\u4e5c
aV\u9576
aV\u8782
aV\u6284
aV\u6b8a
aV\u73ca
aV\u6043
aV\u60d8
aV\u77e2
aV\u7b5d
aV\u96cf
aV\u4e32
aV\u81c3
aV\u68c9
aV\u8247
aV\u662d
aV\u80ae
aV\u8c31
aV\u534f
aV\u6059
aV\u74f6
aV\u5e7d
aV\u5e10
aV\u7a84
aV\u7ba9
aV\u4e30
aV\u80b2
aV\u6258
aV\u9c7c
aV\u4e1b
aV\u6c47
aV\u5955
aV\u97f6
aV\u5455
aV\u6c22
aV\u8bb3
aV\u68b5
aV\u503a
aV\u524e
aV\u9f50
aV\u59bb
aV\u5de7
aV\u9676
aV\u9a7e
aV\u6005
aV\u6398
aV\u97a0
aV\u8fb0
aV\u96b6
aV\u9f3b
aV\u4ec6
aV\u895f
aV\u7ee6
aV\u5e8f
aV\u7126
aV\u8bad
aV\u8fc5
aV\u78cb
aV\u7410
aV\u50fb
aV\u7ea4
aV\u75be
aV\u68c0
aV\u7076
aV\u76d4
aV\u54e8
aV\u819b
aV\u54a9
aV\u4fef
aV\u8170
aV\u8774
aV\u77ff
aV\u868a
aV\u5821
aV\u5429
aV\u8bac
aV\u4f2f
aV\u6cae
aV\u934a
aV\u60c6
aV\u58f6
aV\u5efa
aV\u53fc
aV\u9a8b
aV\u601c
aV\u62db
aV\u7ee3
aV\u756a
aV\u66f3
aV\u707c
aV\u777e
aV\u4f19
aV\u70bc
aV\u5c4f
aV\u625b
aV\u7ae0
aV\u4fee
aV\u659f
aV\u51a7
aV\u5a36
aV\u5c3a
aV\u4fc3
aV\u56fe
aV\u82b9
aV\u9490
aV\u8beb
aV\u7792
aV\u517c
aV\u5211
aV\u98a2
aV\u7b4b
aV\u9ece
aV\u8f7f
aV\u7977
aV\u8eac
aV\u5410
aV\u7838
aV\u5de1
aV\u8e6c
aV\u8912
aV\u52ff
aV\u821f
aV\u9aa4
aV\u6843
aV\u8fc2
aV\u83ca
aV\u755c
aV\u55e6
aV\u5bfa
aV\u5b8f
aV\u5510
aV\u8f97
aV\u7ecd
aV\u6863
aV\u6bef
aV\u63b4
aV\u5ed3
aV\u63f4
aV\u524c
aV\u5014
aV\u5228
aV\u67b1
aV\u543c
aV\u733e
aV\u814a
aV\u53e9
aV\u61f5
aV\u4f01
aV\u98a4
aV\u7329
aV\u8bae
aV\u61ca
aV\u5de2
aV\u8301
aV\u9938
aV\u7626
aV\u8fab
aV\u8d2c
aV\u5632
aV\u54bd
aV\u6363
aV\u5154
aV\u4e01
aV\u9611
aV\u53a8
aV\u5353
aV\u6a59
aV\u52fe
aV\u7483
aV\u5b9d
aV\u7a1c
aV\u6020
aV\u4ebf
aV\u94c3
aV\u7f8a
aV\u63a2
aV\u8d29
aV\u75ae
aV\u84b8
aV\u5443
aV\u60e0
aV\u6d69
aV\u5a32
aV\u5242
aV\u4ed5
aV\u72ed
aV\u6da8
aV\u6eaa
aV\u8bcd
aV\u9e26
aV\u4ea2
aV\u6b67
aV\u79f0
aV\u7c9f
aV\u7eb3
aV\u953b
aV\u4fe9
aV\u6525
aV\u64a4
aV\u6f29
aV\u6d9f
aV\u9976
aV\u8be6
aV\u65fa
aV\u9699
aV\u864e
aV\u9e5e
aV\u8c6a
aV\u6e7e
aV\u9082
aV\u5996
aV\u800d
aV\u6f13
aV\u9619
aV\u95f0
aV\u8fa8
aV\u5bb0
aV\u85e4
aV\u848b
aV\u8c10
aV\u97ad
aV\u8389
aV\u633a
aV\u7ec7
aV\u906d
aV\u9556
aV\u8d66
aV\u6cfb
aV\u5c97
aV\u7edc
aV\u75ab
aV\u6a2a
aV\u6f88
aV\u63cf
aV\u70d9
aV\u5bdf
aV\u585e
aV\u7682
aV\u7384
aV\u6829
aV\u5bb4
aV\u5143
aV\u80ce
aV\u81c2
aV\u840c
aV\u952f
aV\u4f26
aV\u53d9
aV\u79d1
aV\u9e70
aV\u8776
aV\u8bbe
aV\u59ca
aV\u701a
aV\u7cdc
aV\u8165
aV\u53ee
aV\u6cfc
aV\u7b08
aV\u4f10
aV\u7597
aV\u6124
aV\u522e
aV\u7eb1
aV\u6e3a
aV\u51ef
aV\u6676
aV\u6cfd
aV\u9005
aV\u5d07
aV\u6a71
aV\u78ca
aV\u7ff0
aV\u6577
aV\u6614
aV\u4fa5
aV\u7d6e
aV\u8ba2
aV\u7433
aV\u8be2
aV\u607b
aV\u9508
aV\u6593
aV\u58c1
aV\u54c9
aV\u9965
aV\u67ff
aV\u5f84
aV\u8292
aV\u7cae
aV\u6655
aV\u575f
aV\u6dd1
aV\u85aa
aV\u6367
aV\u8c79
aV\u56d7
aV\u9f99
aV\u75b5
aV\u6454
aV\u9709
aV\u592d
aV\u60bc
aV\u56ca
aV\u725b
aV\u5708
aV\u540a
aV\u6495
aV\u6bcb
aV\u8350
aV\u6768
aV\u72f1
aV\u667e
aV\u5a01
aV\u884d
aV\u7ad6
aV\u4e56
aV\u4f8d
aV\u5d16
aV\u6da1
aV\u66a7
aV\u6d4b
aV\u663c
aV\u7f42
aV\u5858
aV\u6c60
aV\u7897
aV\u7586
aV\u8c0b
aV\u5446
aV\u5570
aV\u88f9
aV\u973e
aV\u877c
aV\u6d0b
aV\u626f
aV\u6ea2
aV\u85d0
aV\u5f81
aV\u6293
aV\u5965
aV\u65bd
aV\u80bf
aV\u7fc1
aV\u7248
aV\u87d1
aV\u62d3
aV\u595a
aV\u9668
aV\u680f
aV\u8925
aV\u853d
aV\u64bc
aV\u59da
aV\u62e8
aV\u9e6b
aV\u5175
aV\u4f8b
aV\u8154
aV\u79ef
aV\u5e01
aV\u5507
aV\u5631
aV\u77b0
aV\u65bc
aV\u9547
aV\u66e6
aV\u54f2
aV\u817f
a.