(lp1
V\uff0c
aV\u7684
aV\u3002
aV\u4e86
aV\u4e00
aV\u662f
aV\u4e0d
aV\u6211
aV\u8bf4
aV\u4eba
aV\u5728
aV\u4ed6
aV\u6765
aV\u4f60
aV\u6709
aV\u8fd9
aV\u5c31
aV\u4e0a
aV\uff1a
aV\u5b50
aV\u7740
aV\u4e2a
aV\u91cc
aV\u5927
aV\u90a3
aV\u53bb
aV\u4e5f
aV\u5230
aV\u5730
aV\u5f97
aV\uff1f
aV\uff01
aV\u8981
aV\u4eec
aV\u4e48
aV\u5bb6
aV\u4e0b
aV\u51fa
aV\u6ca1
aV\u770b
aV\u513f
aV\u8fc7
aV\u5934
aV\u4e4b
aV\u8fd8
aV\u5c0f
aV\u5929
aV\u65f6
aV\u53c8
aV\u597d
aV\u8001
aV\u548c
aV\u4e3a
aV\u5979
aV\u8d77
aV\u4e2d
aV\u90fd
aV\u540e
aV\u4e8b
aV\u6708
aV\u751f
aV\u9053
aV\u4ee5
aV\u81ea
aV\u7136
aV\u628a
aV\u80fd
aV\u5e74
aV\u53ef
aV\u56de
aV\u7ed9
aV\u53ea
aV\u4e8c
aV\u89c1
aV\u591a
aV\u800c
aV\u4f1a
aV\u5fc3
aV\u95e8
aV\u4f46
aV\u5341
aV\u4e09
aV\u6837
aV\u58f0
aV\u60f3
aV\u6c34
aV\u5374
aV\u767d
aV\u65e5
aV\u957f
aV\u53d1
aV\u8d70
aV\u5bf9
aV\u4ec0
aV\u5e84
aV\u6587
aV\u4e8e
aV\u624b
aV\u8bdd
aV\u5f00
aV\u4ece
aV\u8fb9
aV\u4e24
aV\u77e5
aV\u4f5c
aV\u9762
aV\u5973
aV\u5403
aV\u4e9b
aV\u5982
aV\u53e3
aV\u5f53
aV\u524d
aV\u6210
aV\u773c
aV\u8eab
aV\u7528
aV\u8ba9
aV\u6253
aV\u6240
aV\u8776
aV\u6c14
aV\u51e0
aV\u72d7
aV\u6e05
aV\u73b0
aV\u56fd
aV\u6b63
aV\u52a8
aV\u4e66
aV\u610f
aV\u5b66
aV\u4fbf
aV\u542c
aV\u65e0
aV\u7ecf
aV\u4e94
aV\u56db
aV\u53eb
aV\u590f
aV\u518d
aV\u624d
aV\u897f
aV\u9ad8
aV\u5df1
aV\u8fdb
aV\u7b11
aV\u4eb2
aV\u660e
aV\u8138
aV\u91d1
aV\u5df2
aV\u95ee
aV\u672c
aV\u600e
aV\u6b7b
aV\u5c06
aV\u725b
aV\u88ab
aV\u8005
aV\u5916
aV\u5149
aV\u60c5
aV\u7237
aV\u5f80
aV\u5e72
aV\u5012
aV\u771f
aV\u70b9
aV\u623f
aV\u4f4f
aV\u505a
aV\u5f88
aV\u5148
aV\u4e3b
aV\u79cd
aV\u5206
aV\u884c
aV\u98ce
aV\u5427
aV\u592a
aV\u5417
aV\u65b9
aV\u540c
aV\u7530
aV\u82b1
aV\u5c71
aV\u653e
aV\u5440
aV\u5b9e
aV\u7b2c
aV\u522b
aV\u50cf
aV\u94b1
aV\u89c9
aV\u5b83
aV\u5199
aV\u5750
aV\u56e0
aV\u65b0
aV\u7ea2
aV\u6d3b
aV\u67f3
aV\u95f4
aV\u9152
aV\u6761
aV\u4e1c
aV\u5976
aV\u540d
aV\u77f3
aV\u5462
aV\u5168
aV\u5176
aV\u4e5d
aV\u5b9a
aV\u8def
aV\u6839
aV\u6700
aV\u7b49
aV\u8bb0
aV\u8f66
aV\u8272
aV\u5e76
aV\u9ed1
aV\u8c01
aV\u4e49
aV\u4f7f
aV\u7236
aV\u76f4
aV\u5f20
aV\u9662
aV\u559d
aV\u4e91
aV\u5b57
aV\u57ce
aV\u5e38
aV\u5b89
aV\u6b21
aV\u5019
aV\u5c11
aV\u534a
aV\u6b64
aV\u4e0e
aV\u547d
aV\u516c
aV\u6c11
aV\u5904
aV\u679c
aV\u8bb8
aV\u6cb3
aV\u611f
aV\u516b
aV\u4eca
aV\u5a18
aV\u76f8
aV\u4e03
aV\u5987
aV\u6cd5
aV\u996d
aV\u529b
aV\u5e73
aV\u811a
aV\u706b
aV\u62ff
aV\u8857
aV\u6751
aV\u8fde
aV\u6d41
aV\u54b1
aV\u5634
aV\u9ec4
aV\u7406
aV\u62c9
aV\u96be
aV\u5173
aV\u4fe1
aV\u6811
aV\u6ee1
aV\u571f
aV\u9a6c
aV\u54ea
aV\u70df
aV\u8dd1
aV\u591c
aV\u5e08
aV\u7a7a
aV\u6307
aV\u6216
aV\u7ad9
aV\u5411
aV\u8a00
aV\u62a5
aV\u7239
aV\u5468
aV\u5c4b
aV\u7acb
aV\u738b
aV\u7231
aV\u5de5
aV\u5373
aV\u54e9
aV\u793e
aV\u8868
aV\u592b
aV\u573a
aV\u96ea
aV\u6015
aV\u7adf
aV\u72fc
aV\u66f4
aV\u5b69
aV\u601d
aV\u65e9
aV\u4e70
aV\u8ddf
aV\u4f53
aV\u4e4e
aV\u8be5
aV\u7761
aV\u91cd
aV\u795e
aV\u6536
aV\u90e8
aV\u603b
aV\u539f
aV\u4fdd
aV\u4f3c
aV\u5feb
aV\u4e16
aV\u63d0
aV\u4eac
aV\u5317
aV\u5458
aV\u8bba
aV\u4ee3
aV\u627e
aV\u6728
aV\u961f
aV\u767e
aV\u6bd4
aV\u529e
aV\u8fdc
aV\u8205
aV\u5e26
aV\u9a82
aV\u63a5
aV\u5e94
aV\u5566
aV\u5df4
aV\u7269
aV\u53d7
aV\u843d
aV\u53bf
aV\u82f1
aV\u8fd0
aV\u9001
aV\u7247
aV\u516d
aV\u53d8
aV\u5b8c
aV\u732a
aV\u81f3
aV\u53cd
aV\u7535
aV\u8bed
aV\u89e3
aV\u76ae
aV\u4e61
aV\u7537
aV\u54ed
aV\u4f55
aV\u5988
aV\u6bcf
aV\u5757
aV\u6bdb
aV\u7f8e
aV\u673a
aV\u70ed
aV\u8863
aV\u5305
aV\u54cd
aV\u5a46
aV\u7ed3
aV\u6bcd
aV\u4f20
aV\u82e6
aV\u7559
aV\u7ae0
aV\u6559
aV\u975e
aV\u4e14
aV\u544a
aV\u4eae
aV\u8349
aV\u901a
aV\u5510
aV\u53e5
aV\u4f4d
aV\u9752
aV\u8ba4
aV\u5fd9
aV\u8f7b
aV\u67aa
aV\u822c
aV\u5408
aV\u671b
aV\u5565
aV\u54e5
aV\u670d
aV\u7ba1
aV\u76ee
aV\u5143
aV\u798f
aV\u96c6
aV\u8f6c
aV\u554a
aV\u75c5
aV\u672a
aV\u9769
aV\u6562
aV\u5316
aV\u7b97
aV\u5174
aV\u8d8a
aV\u53cc
aV\u867d
aV\u8239
aV\u4efb
aV\u66fe
aV\u7a7f
aV\u80cc
aV\u558a
aV\u5899
aV\u4ea7
aV\u6b65
aV\u5165
aV\u7531
aV\u5e02
aV\u52a0
aV\u4ef6
aV\u79bb
aV\u7fe0
aV\u654f
aV\u95f9
aV\u753b
aV\u9886
aV\u5b9b
aV\u7eb8
aV\u54c1
aV\u6c49
aV\u7167
aV\u665a
aV\u817f
aV\u53e4
aV\u8fd1
aV\u6545
aV\u7d27
aV\u775b
aV\u6d77
aV\u4e07
aV\u5e95
aV\u5357
aV\u8840
aV\u667a
aV\u6027
aV\u96e8
aV\u5b5f
aV\u5fd7
aV\u6df1
aV\u559c
aV\u94c1
aV\u5404
aV\u7834
aV\u9999
aV\u8089
aV\u53f0
aV\u5f71
aV\u9759
aV\u5fc5
aV\u9b3c
aV\u4ea4
aV\u8bf7
aV\u60ca
aV\u541b
aV\u8d75
aV\u8bb2
aV\u7ec8
aV\u4e71
aV\u4e3e
aV\u653f
aV\u51b7
aV\u97f3
aV\u9e21
aV\u671f
aV\u7f62
aV\u5b98
aV\u8bc6
aV\u5207
aV\u58eb
aV\u5f85
aV\u6570
aV\u98de
aV\u5dde
aV\u77a7
aV\u5bb3
aV\u827a
aV\u6781
aV\u661f
aV\u652f
aV\u9ebb
aV\u8c61
aV\u9633
aV\u963f
aV\u697c
aV\u6389
aV\u8d76
aV\u5473
aV\u7ffb
aV\u80e1
aV\u7a81
aV\u6025
aV\u6740
aV\u6b22
aV\u5931
aV\u59d0
aV\u5219
aV\u5947
aV\u9f99
aV\u5355
aV\u590d
aV\u6c42
aV\u8bfb
aV\u520a
aV\u5f62
aV\u88c5
aV\u70c2
aV\u754c
aV\u4f17
aV\u89d2
aV\u5e03
aV\u62b1
aV\u602a
aV\u53f8
aV\u4e1a
aV\u968f
aV\u547c
aV\u6f14
aV\u519c
aV\u5bfc
aV\u6797
aV\u677f
aV\u6162
aV\u9648
aV\u5356
aV\u8df3
aV\u5343
aV\u7bc7
aV\u5546
aV\u7cbe
aV\u53d6
aV\u5802
aV\u5584
aV\u505c
aV\u7279
aV\u6c89
aV\u70e7
aV\u5c3d
aV\u5ab3
aV\u5185
aV\u6539
aV\u8111
aV\u4f24
aV\u5f1f
aV\u97e9
aV\u6218
aV\u5bb9
aV\u6563
aV\u8033
aV\u4e45
aV\u53cb
aV\u5e97
aV\u5bfb
aV\u4e50
aV\u5531
aV\u6574
aV\u504f
aV\u4ee4
aV\u521a
aV\u6cb9
aV\u7ec6
aV\u534e
aV\u521d
aV\u5a76
aV\u5ba2
aV\u4f4e
aV\u5229
aV\u606f
aV\u9a74
aV\u53d4
aV\u5e86
aV\u684c
aV\u56e2
aV\u987a
aV\u59cb
aV\u888b
aV\u6742
aV\u5ff5
aV\u8c08
aV\u6392
aV\u5e2e
aV\u82e5
aV\u65e7
aV\u63a8
aV\u7fa4
aV\u6293
aV\u836f
aV\u7b54
aV\u978b
aV\u4f5b
aV\u7897
aV\u666f
aV\u6c5f
aV\u7a97
aV\u80a1
aV\u6cea
aV\u523b
aV\u7c7b
aV\u7f16
aV\u517b
aV\u76d6
aV\u79e6
aV\u7aef
aV\u519b
aV\u5377
aV\u613f
aV\u91cf
aV\u9876
aV\u5fb7
aV\u6447
aV\u5a03
aV\u75db
aV\u79f0
aV\u84dd
aV\u53ca
aV\u5e8a
aV\u620f
aV\u7259
aV\u6d2a
aV\u5a5a
aV\u6599
aV\u91ce
aV\u5f3a
aV\u5e9c
aV\u4f59
aV\u4f2f
aV\u7cfb
aV\u706f
aV\u53f7
aV\u79be
aV\u6d88
aV\u5200
aV\u574f
aV\u9635
aV\u809a
aV\u6697
aV\u65ad
aV\u5f15
aV\u4ead
aV\u9898
aV\u8282
aV\u51c6
aV\u6b66
aV\u51b2
aV\u5348
aV\u59d1
aV\u7389
aV\u83dc
aV\u60a8
aV\u51b3
aV\u53f6
aV\u793c
aV\u5c81
aV\u7f57
aV\u5370
aV\u538b
aV\u8ba1
aV\u6302
aV\u6000
aV\u7b14
aV\u9636
aV\u515a
aV\u672f
aV\u54ac
aV\u949f
aV\u6cbb
aV\u9020
aV\u89c2
aV\u8bd1
aV\u6e38
aV\u5446
aV\u8170
aV\u6625
aV\u5f04
aV\u8db3
aV\u98df
aV\u7075
aV\u5175
aV\u7ea7
aV\u6076
aV\u56f4
aV\u4f19
aV\u8bc9
aV\u80af
aV\u62db
aV\u663e
aV\u9ea6
aV\u5ea6
aV\u9192
aV\u65c1
aV\u9547
aV\u62ac
aV\u5236
aV\u6d3e
aV\u5439
aV\u67b6
aV\u533b
aV\u6597
aV\u9000
aV\u6068
aV\u4e1d
aV\u5e0c
aV\u9760
aV\u7edd
aV\u72ec
aV\u4e89
aV\u6d17
aV\u7ea6
aV\u8054
aV\u8131
aV\u6478
aV\u526f
aV\u670b
aV\u674e
aV\u9f13
aV\u62cd
aV\u7a76
aV\u5ffd
aV\u8bc4
aV\u5b54
aV\u6301
aV\u591f
aV\u7095
aV\u6e10
aV\u9f3b
aV\u62bd
aV\u5c1a
aV\u8336
aV\u6c99
aV\u5c40
aV\u5fd8
aV\u6bb5
aV\u7a9d
aV\u6ce8
aV\u68a6
aV\u9aa8
aV\u8c03
aV\u864e
aV\u95f2
aV\u7cb1
aV\u671d
aV\u4e13
aV\u5de6
aV\u786c
aV\u9519
aV\u5e7f
aV\u6613
aV\u89c6
aV\u6c9f
aV\u95ea
aV\u6d0b
aV\u6237
aV\u7ebf
aV\u5ba4
aV\u638c
aV\u6446
aV\u5b9d
aV\u548b
aV\u778e
aV\u6251
aV\u5171
aV\u77ed
aV\u5bc6
aV\u6362
aV\u6309
aV\u719f
aV\u5efa
aV\u7701
aV\u5bcc
aV\u53f2
aV\u78e8
aV\u6d1e
aV\u59d4
aV\u9c7c
aV\u5708
aV\u56fe
aV\u5386
aV\u6821
aV\u9c81
aV\u786e
aV\u7eff
aV\u4f38
aV\u6279
aV\u751a
aV\u5438
aV\u7956
aV\u5806
aV\u8bd7
aV\u8c46
aV\u5f39
aV\u53e6
aV\u987f
aV\u8bae
aV\u5218
aV\u636e
aV\u529f
aV\u7591
aV\u53c2
aV\u7af9
aV\u4ecd
aV\u677e
aV\u83ab
aV\u9664
aV\u6b4c
aV\u51c9
aV\u52bf
aV\u5144
aV\u5c41
aV\u5c42
aV\u95fb
aV\u5047
aV\u79cb
aV\u73a9
aV\u5dee
aV\u5be8
aV\u65e2
aV\u6bd5
aV\u8116
aV\u6ce5
aV\u4f9d
aV\u987b
aV\u51b5
aV\u561b
aV\u6fc0
aV\u5e1d
aV\u7c73
aV\u6735
aV\u5f0f
aV\u722c
aV\u8d35
aV\u5fae
aV\u683c
aV\u9634
aV\u9732
aV\u9996
aV\u5907
aV\u4fee
aV\u59d3
aV\u5e2d
aV\u6b62
aV\u7070
aV\u88e4
aV\u8bc1
aV\u61c2
aV\u72b6
aV\u62c5
aV\u7c97
aV\u8fc5
aV\u4eff
aV\u7f6a
aV\u7eaa
aV\u67dc
aV\u6258
aV\u54c8
aV\u5b59
aV\u52a1
aV\u5077
aV\u6885
aV\u59bb
aV\u9505
aV\u8f6f
aV\u6eda
aV\u521b
aV\u9047
aV\u5b58
aV\u8c13
aV\u9897
aV\u51fb
aV\u4e25
aV\u8d39
aV\u78b0
aV\u9ed8
aV\u86cb
aV\u6050
aV\u4e22
aV\u53f3
aV\u6c6a
aV\u74f6
aV\u638f
aV\u7ef3
aV\u7cca
aV\u4ef7
aV\u6750
aV\u501f
aV\u5e78
aV\u67e5
aV\u6a21
aV\u56ed
aV\u5ac2
aV\u9986
aV\u82cf
aV\u62d6
aV\u4efd
aV\u793a
aV\u6c57
aV\u5706
aV\u6881
aV\u8003
aV\u656c
aV\u81f4
aV\u8457
aV\u7248
aV\u731b
aV\u676f
aV\u96f7
aV\u987e
aV\u5f2f
aV\u5c01
aV\u76d8
aV\u94fa
aV\u9189
aV\u514d
aV\u54d1
aV\u4ec5
aV\u52b2
aV\u5413
aV\u5c16
aV\u523a
aV\u5c45
aV\u8fce
aV\u5df7
aV\u8d44
aV\u94f6
aV\u52a9
aV\u7eed
aV\u73ed
aV\u5367
aV\u96c4
aV\u8154
aV\u6551
aV\u8f88
aV\u6234
aV\u672b
aV\u70e6
aV\u6c38
aV\u5c14
aV\u8ff7
aV\u75af
aV\u5f02
aV\u51e4
aV\u90b1
aV\u5410
aV\u732b
aV\u5382
aV\u51c0
aV\u904d
aV\u9f50
aV\u788e
aV\u5ba3
aV\u6572
aV\u6743
aV\u6001
aV\u72af
aV\u865a
aV\u5fcd
aV\u817e
aV\u6848
aV\u76db
aV\u8c22
aV\u642d
aV\u5269
aV\u955c
aV\u65af
aV\u820d
aV\u5cf0
aV\u8fbe
aV\u724c
aV\u58c1
aV\u5267
aV\u695a
aV\u9b41
aV\u70c8
aV\u75bc
aV\u8eba
aV\u5170
aV\u6e9c
aV\u5c3e
aV\u8ffd
aV\u8d27
aV\u5957
aV\u66f2
aV\u5b8f
aV\u6cbf
aV\u60b2
aV\u624e
aV\u7ec4
aV\u5385
aV\u552f
aV\u62fe
aV\u6cf0
aV\u7ecd
aV\u52b3
aV\u4e92
aV\u7c89
aV\u9003
aV\u7709
aV\u62a4
aV\u76c6
aV\u5ea7
aV\u4e34
aV\u5cb8
aV\u6295
aV\u5360
aV\u8d3e
aV\u5954
aV\u9a91
aV\u5409
aV\u5177
aV\u6012
aV\u85cf
aV\u5939
aV\u8f7d
aV\u65a4
aV\u7d2f
aV\u67d0
aV\u7f3a
aV\u7384
aV\u8000
aV\u68cd
aV\u5c55
aV\u8ba8
aV\u6084
aV\u626c
aV\u649e
aV\u9b42
aV\u679d
aV\u6768
aV\u5c3f
aV\u58a8
aV\u585e
aV\u627f
aV\u5b88
aV\u68f5
aV\u7d22
aV\u8d23
aV\u4e08
aV\u94bb
aV\u804c
aV\u72c2
aV\u64e6
aV\u80f8
aV\u826f
aV\u6298
aV\u614c
aV\u7626
aV\u900f
aV\u660f
aV\u53f9
aV\u7a3f
aV\u8d34
aV\u8c37
aV\u6717
aV\u5bdf
aV\u5e3d
aV\u6d6a
aV\u7b80
aV\u539a
aV\u8d22
aV\u6247
aV\u601c
aV\u8bbe
aV\u5320
aV\u6323
aV\u73af
aV\u80dc
aV\u6865
aV\u6d82
aV\u4f8b
aV\u9e1f
aV\u51f9
aV\u7cae
aV\u533a
aV\u7965
aV\u8bd5
aV\u6276
aV\u575f
aV\u59b9
aV\u7f8a
aV\u706d
aV\u545c
aV\u6668
aV\u8da3
aV\u74dc
aV\u5f69
aV\u5c5e
aV\u60dc
aV\u95f7
aV\u8bef
aV\u6311
aV\u7a77
aV\u67f4
aV\u6324
aV\u8f6e
aV\u4fe9
aV\u51b0
aV\u9057
aV\u8d25
aV\u514b
aV\u7816
aV\u6643
aV\u5435
aV\u9009
aV\u914d
aV\u5ac1
aV\u5cb3
aV\u6e21
aV\u57cb
aV\u4e01
aV\u57fa
aV\u6a2a
aV\u4ed9
aV\u5acc
aV\u626d
aV\u7a0b
aV\u51e1
aV\u5e9e
aV\u63d2
aV\u6b32
aV\u575a
aV\u95ed
aV\u80b2
aV\u659c
aV\u5217
aV\u9694
aV\u81ed
aV\u818a
aV\u6296
aV\u821e
aV\u9c9c
aV\u66ff
aV\u80c6
aV\u62dc
aV\u6982
aV\u4ef0
aV\u65cf
aV\u866b
aV\u4f9b
aV\u7687
aV\u5f52
aV\u820c
aV\u8d1d
aV\u966a
aV\u641e
aV\u5426
aV\u7238
aV\u79d8
aV\u7565
aV\u4e3d
aV\u5ddd
aV\u6e29
aV\u529d
aV\u5999
aV\u5b5d
aV\u7275
aV\u7f1d
aV\u62f3
aV\u6df7
aV\u5018
aV\u6d6e
aV\u540a
aV\u8865
aV\u9690
aV\u5de7
aV\u6325
aV\u8d24
aV\u6297
aV\u730e
aV\u8b66
aV\u4e60
aV\u767b
aV\u5883
aV\u5668
aV\u6b8b
aV\u7a00
aV\u80d6
aV\u674f
aV\u6377
aV\u58ee
aV\u6de1
aV\u536b
aV\u6ce1
aV\u532a
aV\u707f
aV\u5212
aV\u8e05
aV\u51ac
aV\u5bbd
aV\u7981
aV\u8f83
aV\u4f0f
aV\u8d28
aV\u8584
aV\u5b81
aV\u4e11
aV\u74e6
aV\u5ead
aV\u9700
aV\u6028
aV\u4ecb
aV\u5b8b
aV\u68da
aV\u5a01
aV\u503c
aV\u4fca
aV\u6c0f
aV\u8f91
aV\u6316
aV\u82d7
aV\u7edf
aV\u7720
aV\u7814
aV\u8d1f
aV\u6beb
aV\u80f3
aV\u6628
aV\u91c7
aV\u66f0
aV\u73e0
aV\u56b7
aV\u8f9e
aV\u5f55
aV\u83b2
aV\u5192
aV\u4e95
aV\u60ef
aV\u64cd
aV\u7f50
aV\u6f6e
aV\u4ea1
aV\u5c04
aV\u653b
aV\u7ec7
aV\u8e0f
aV\u621a
aV\u80a9
aV\u642c
aV\u54fc
aV\u5495
aV\u79ef
aV\u5145
aV\u53a8
aV\u8bcd
aV\u9178
aV\u6f02
aV\u62a2
aV\u7f18
aV\u604b
aV\u82cd
aV\u989c
aV\u54d7
aV\u6c64
aV\u4e4c
aV\u8499
aV\u7ef4
aV\u72e0
aV\u63a2
aV\u6388
aV\u4e32
aV\u65d7
aV\u5c24
aV\u66f9
aV\u6b3e
aV\u9aa1
aV\u997c
aV\u4e1b
aV\u80a5
aV\u6254
aV\u5761
aV\u4f34
aV\u7f9e
aV\u5bfa
aV\u4f11
aV\u7686
aV\u8ff9
aV\u6108
aV\u9645
aV\u906d
aV\u907f
aV\u7f13
aV\u633a
aV\u8f86
aV\u62e5
aV\u8d64
aV\u5bd2
aV\u6c7d
aV\u62d4
aV\u5389
aV\u62b9
aV\u6807
aV\u962e
aV\u6843
aV\u70ae
aV\u9646
aV\u626f
aV\u9f20
aV\u63e1
aV\u5c38
aV\u6e7f
aV\u5b97
aV\u5395
aV\u836b
aV\u7eb7
aV\u79c1
aV\u70b8
aV\u8e72
aV\u7741
aV\u5a36
aV\u6f2b
aV\u9002
aV\u718a
aV\u72b9
aV\u5b64
aV\u94dc
aV\u8e44
aV\u6069
aV\u6ed1
aV\u5507
aV\u8dcc
aV\u6124
aV\u6b47
aV\u5751
aV\u8425
aV\u62d0
aV\u54c0
aV\u9e23
aV\u90ed
aV\u8bad
aV\u7ee7
aV\u8150
aV\u8db4
aV\u9a8c
aV\u626b
aV\u66b4
aV\u634f
aV\u5237
aV\u5e99
aV\u6d51
aV\u6ee9
aV\u7838
aV\u5178
aV\u79d1
aV\u666e
aV\u97ad
aV\u9f9a
aV\u4fc4
aV\u9644
aV\u8e22
aV\u6bd2
aV\u62e8
aV\u810f
aV\u51f6
aV\u644a
aV\u5347
aV\u7968
aV\u6492
aV\u5de8
aV\u7ed2
aV\u594b
aV\u5b9c
aV\u5f92
aV\u62b5
aV\u6469
aV\u9669
aV\u82df
aV\u4ec7
aV\u52c7
aV\u55b7
aV\u804a
aV\u4fd7
aV\u77ff
aV\u8352
aV\u68c9
aV\u5306
aV\u98d8
aV\u86c7
aV\u69fd
aV\u886b
aV\u8dea
aV\u6d8c
aV\u5582
aV\u989d
aV\u9488
aV\u5fc6
aV\u5d16
aV\u5893
aV\u98a4
aV\u56f0
aV\u4e27
aV\u7533
aV\u5e45
aV\u8d4f
aV\u7f6e
aV\u6e90
aV\u5c6f
aV\u675c
aV\u52fe
aV\u65cb
aV\u89c4
aV\u9875
aV\u6d4e
aV\u7eea
aV\u4ed8
aV\u4e59
aV\u5e9f
aV\u6b6a
aV\u5272
aV\u67d4
aV\u5f8b
aV\u4e8f
aV\u6746
aV\u7532
aV\u8bda
aV\u4eab
aV\u60a0
aV\u8361
aV\u7f20
aV\u5c0a
aV\u6491
aV\u54ce
aV\u54c4
aV\u8f9b
aV\u56fa
aV\u675f
aV\u5bc2
aV\u5782
aV\u5085
aV\u5224
aV\u88c2
aV\u8fdf
aV\u7cdf
aV\u54bd
aV\u9655
aV\u6101
aV\u9738
aV\u5c18
aV\u51f3
aV\u96fe
aV\u6cbe
aV\u5f31
aV\u8eb2
aV\u903c
aV\u8feb
aV\u6361
aV\u7a33
aV\u7d2b
aV\u7b3c
aV\u6267
aV\u8521
aV\u561f
aV\u5e7d
aV\u5723
aV\u68fa
aV\u53ee
aV\u8c0b
aV\u53ed
aV\u8d3c
aV\u6328
aV\u6094
aV\u563f
aV\u8fd4
aV\u5c48
aV\u65bd
aV\u63ed
aV\u5c1d
aV\u60d1
aV\u7cd6
aV\u6bc1
aV\u6e56
aV\u5265
aV\u9650
aV\u72d0
aV\u7bb1
aV\u4ec1
aV\u7ed5
aV\u54df
aV\u4fa7
aV\u6696
aV\u8fa9
aV\u5434
aV\u780d
aV\u654c
aV\u6dd1
aV\u607c
aV\u54c7
aV\u7f29
aV\u606d
aV\u76ef
aV\u7c4d
aV\u60f9
aV\u4ea6
aV\u556a
aV\u543c
aV\u6454
aV\u7629
aV\u6b20
aV\u8fa3
aV\u7599
aV\u80a0
aV\u51ed
aV\u65c5
aV\u6d53
aV\u60e8
aV\u79fb
aV\u5f81
aV\u59e8
aV\u5076
aV\u7caa
aV\u5824
aV\u6cc9
aV\u9f7f
aV\u5339
aV\u8896
aV\u8d5e
aV\u77ee
aV\u67d3
aV\u73bb
aV\u5b63
aV\u751c
aV\u50bb
aV\u4e30
aV\u9632
aV\u7126
aV\u6e7e
aV\u6905
aV\u5bc4
aV\u8363
aV\u6ecb
aV\u8bf8
aV\u997f
aV\u805a
aV\u6349
aV\u5201
aV\u5c94
aV\u6cab
aV\u5c4e
aV\u5c3c
aV\u9614
aV\u756a
aV\u563b
aV\u91ca
aV\u5662
aV\u9042
aV\u9971
aV\u83b7
aV\u5de9
aV\u5598
aV\u71ac
aV\u71c3
aV\u6ce2
aV\u538c
aV\u67af
aV\u731c
aV\u6d45
aV\u5821
aV\u7334
aV\u96f6
aV\u526a
aV\u7eaf
aV\u6d3c
aV\u7b56
aV\u998d
aV\u76fc
aV\u68c0
aV\u4f18
aV\u8010
aV\u7d20
aV\u901f
aV\u7483
aV\u8212
aV\u79c0
aV\u90bb
aV\u8d85
aV\u61d2
aV\u5eb7
aV\u90ce
aV\u9676
aV\u574a
aV\u5a25
aV\u76d2
aV\u9500
aV\u5854
aV\u9012
aV\u84b8
aV\u6495
aV\u622a
aV\u6f06
aV\u5c3a
aV\u6355
aV\u7076
aV\u7403
aV\u6321
aV\u4f1f
aV\u8ff0
aV\u58f6
aV\u5509
aV\u964d
aV\u593a
aV\u542b
aV\u62ab
aV\u813e
aV\u6263
aV\u63a9
aV\u7eb3
aV\u6ef4
aV\u707e
aV\u800d
aV\u9489
aV\u535a
aV\u78d5
aV\u9887
aV\u8f93
aV\u7b51
aV\u8d2d
aV\u75d2
aV\u8d2b
aV\u6170
aV\u9677
aV\u609f
aV\u5e8f
aV\u76b1
aV\u589e
aV\u8273
aV\u6795
aV\u5eb5
aV\u5f03
aV\u6cfc
aV\u6167
aV\u6dfb
aV\u517d
aV\u6876
aV\u5bbf
aV\u8e29
aV\u9a97
aV\u8dc3
aV\u94a2
aV\u6458
aV\u9707
aV\u7e41
aV\u51a4
aV\u5e7b
aV\u553e
aV\u4e9a
aV\u7206
aV\u89e6
aV\u9501
aV\u82a6
aV\u503e
aV\u4e39
aV\u7f69
aV\u7eb9
aV\u4f0d
aV\u806a
aV\u6346
aV\u722a
aV\u5938
aV\u68d2
aV\u8303
aV\u5cad
aV\u9014
aV\u77aa
aV\u76d0
aV\u7801
aV\u4f0a
aV\u53e8
aV\u6c60
aV\u6cdb
aV\u543e
aV\u56bc
aV\u6dcb
aV\u4e43
aV\u76ca
aV\u7262
aV\u53a6
aV\u680f
aV\u80f6
aV\u578b
aV\u683d
aV\u9e9d
aV\u8ba2
aV\u7ec3
aV\u7ae5
aV\u8f70
aV\u6eaa
aV\u7a84
aV\u522e
aV\u541f
aV\u592e
aV\u8d81
aV\u6280
aV\u54b3
aV\u8179
aV\u9010
aV\u5589
aV\u60df
aV\u6620
aV\u542d
aV\u515c
aV\u52aa
aV\u996e
aV\u846c
aV\u74f7
aV\u8c8c
aV\u65e6
aV\u5bff
aV\u664c
aV\u7089
aV\u7b28
aV\u7272
aV\u7a3c
aV\u5fe7
aV\u63cf
aV\u75f4
aV\u5431
aV\u9884
aV\u83ca
aV\u8bbf
aV\u5f90
aV\u52c3
aV\u65a5
aV\u5be1
aV\u5978
aV\u541e
aV\u5524
aV\u5bbe
aV\u88f9
aV\u59c6
aV\u6d46
aV\u5288
aV\u9965
aV\u96c5
aV\u60a6
aV\u51f0
aV\u9022
aV\u8f7f
aV\u948a
aV\u76d1
aV\u53ec
aV\u6413
aV\u9e3d
aV\u906e
aV\u8d9f
aV\u7a0d
aV\u8747
aV\u5492
aV\u549a
aV\u79c3
aV\u626e
aV\u6367
aV\u8fb1
aV\u63c9
aV\u810a
aV\u5e7c
aV\u5371
aV\u4ed7
aV\u6123
aV\u72f1
aV\u54a7
aV\u5e93
aV\u732e
aV\u8180
aV\u64b5
aV\u5251
aV\u7978
aV\u5949
aV\u5587
aV\u73cd
aV\u5632
aV\u7ffc
aV\u8be6
aV\u803b
aV\u5f7b
aV\u575b
aV\u8d5b
aV\u7891
aV\u5ba1
aV\u8c6a
aV\u6e85
aV\u58f3
aV\u6c47
aV\u7529
aV\u5154
aV\u6b3a
aV\u51d1
aV\u5fe0
aV\u7281
aV\u7f5a
aV\u51cf
aV\u8c23
aV\u8651
aV\u9a9a
aV\u8d29
aV\u5065
aV\u67f1
aV\u6ee2
aV\u584c
aV\u5851
aV\u5e55
aV\u4e73
aV\u6d01
aV\u79df
aV\u7ade
aV\u62e6
aV\u7b52
aV\u6405
aV\u5b55
aV\u6682
aV\u7164
aV\u582a
aV\u814a
aV\u9756
aV\u7f72
aV\u6070
aV\u6548
aV\u5e10
aV\u59a5
aV\u7ad6
aV\u5ae9
aV\u5bab
aV\u60f6
aV\u51c4
aV\u6b23
aV\u68b3
aV\u53fc
aV\u6d12
aV\u795d
aV\u535c
aV\u62e2
aV\u6655
aV\u75d5
aV\u64ad
aV\u4e58
aV\u8d5a
aV\u6851
aV\u704c
aV\u72f8
aV\u8346
aV\u635e
aV\u602f
aV\u84ec
aV\u8e81
aV\u80c3
aV\u6402
aV\u4f2a
aV\u7c92
aV\u5835
aV\u6653
aV\u552e
aV\u5361
aV\u52fa
aV\u4f30
aV\u6d25
aV\u8015
aV\u7a91
aV\u6363
aV\u6591
aV\u52d2
aV\u77e3
aV\u62e7
aV\u68a2
aV\u5450
aV\u5dfe
aV\u60ac
aV\u868a
aV\u8bfe
aV\u8702
aV\u96d5
aV\u8d31
aV\u6b27
aV\u5d07
aV\u4ea9
aV\u62f4
aV\u6bbf
aV\u55e1
aV\u9ccc
aV\u8d56
aV\u70ad
aV\u565c
aV\u9879
aV\u6c61
aV\u6241
aV\u816e
aV\u7f51
aV\u7b77
aV\u542f
aV\u9523
aV\u534f
aV\u96c0
aV\u6652
aV\u88d9
aV\u635f
aV\u5243
aV\u5141
aV\u62f1
aV\u832b
aV\u6d47
aV\u5448
aV\u5986
aV\u7eb5
aV\u4f01
aV\u80ce
aV\u5eca
aV\u6a90
aV\u8106
aV\u7518
aV\u50ac
aV\u8fab
aV\u819d
aV\u7f38
aV\u6342
aV\u9f84
aV\u98a0
aV\u8d54
aV\u8d4c
aV\u6850
aV\u6da8
aV\u5475
aV\u60e7
aV\u7b7e
aV\u7a0e
aV\u81e3
aV\u679a
aV\u5a92
aV\u6d4b
aV\u819b
aV\u6d32
aV\u6cfd
aV\u9065
aV\u56ca
aV\u7a74
aV\u6168
aV\u80bf
aV\u6869
aV\u8c31
aV\u604d
aV\u716e
aV\u62d2
aV\u5de1
aV\u8fb0
aV\u55c5
aV\u5657
aV\u5211
aV\u543b
aV\u7ef8
aV\u8c6b
aV\u6e34
aV\u55e6
aV\u53a2
aV\u81c2
aV\u6089
aV\u60a3
aV\u8165
aV\u67c4
aV\u6da6
aV\u8d62
aV\u4eea
aV\u8ddd
aV\u9510
aV\u632f
aV\u4fc3
aV\u59ff
aV\u9017
aV\u51bb
aV\u618b
aV\u5ef6
aV\u5e18
aV\u5956
aV\u8427
aV\u78be
aV\u6cc4
aV\u8de8
aV\u7092
aV\u871c
aV\u5323
aV\u8884
aV\u7b26
aV\u633d
aV\u918b
aV\u5948
aV\u7130
aV\u51dd
aV\u568e
aV\u6b8a
aV\u8e2a
aV\u755c
aV\u90aa
aV\u5c82
aV\u6d1b
aV\u5f84
aV\u5b85
aV\u5ca9
aV\u55fd
aV\u6233
aV\u5f7c
aV\u708e
aV\u9e26
aV\u8d3a
aV\u8270
aV\u74ee
aV\u809d
aV\u62c6
aV\u4e4f
aV\u6284
aV\u6838
aV\u6c93
aV\u85e4
aV\u8f89
aV\u4f69
aV\u594f
aV\u71d5
aV\u6770
aV\u4ed4
aV\u88ad
aV\u5858
aV\u6444
aV\u52e4
aV\u7ea0
aV\u59a8
aV\u53d9
aV\u8bfa
aV\u6d59
aV\u634e
aV\u9b54
aV\u9970
aV\u5e16
aV\u524a
aV\u9177
aV\u7c98
aV\u70eb
aV\u758f
aV\u6401
aV\u8fc1
aV\u7387
aV\u6d78
aV\u80a4
aV\u8377
aV\u6270
aV\u641c
aV\u878d
aV\u901b
aV\u5f13
aV\u7b79
aV\u4e18
aV\u9972
aV\u94a9
aV\u5a9b
aV\u752d
aV\u8214
aV\u9686
aV\u6062
aV\u629a
aV\u90c1
aV\u5bde
aV\u70db
aV\u8d26
aV\u9e2d
aV\u7785
aV\u6676
aV\u67ff
aV\u76fe
aV\u6127
aV\u8986
aV\u62ec
aV\u5f25
aV\u5366
aV\u68af
aV\u632a
aV\u8bbd
aV\u54af
aV\u67a3
aV\u57ab
aV\u7fd8
aV\u9b4f
aV\u68ee
aV\u5499
aV\u517c
aV\u8083
aV\u6db2
aV\u8902
aV\u6f20
aV\u77db
aV\u5352
aV\u7554
aV\u6c13
aV\u8e6c
aV\u55d3
aV\u4f10
aV\u50f5
aV\u8d2a
aV\u4ffa
aV\u7aed
aV\u96c7
aV\u6784
aV\u86ee
aV\u7ed1
aV\u7b4b
aV\u75b2
aV\u7f55
aV\u65f1
aV\u5fcc
aV\u5974
aV\u560e
aV\u9600
aV\u51a0
aV\u7fc5
aV\u57f9
aV\u9a71
aV\u9888
aV\u557c
aV\u79f8
aV\u5766
aV\u5401
aV\u54f2
aV\u6846
aV\u6d89
aV\u54e8
aV\u8305
aV\u6602
aV\u664b
aV\u5351
aV\u9080
aV\u7bee
aV\u7b50
aV\u682a
aV\u4f26
aV\u5760
aV\u6f7c
aV\u574e
aV\u4e2b
aV\u83b1
aV\u889c
aV\u88f8
aV\u5543
aV\u5bf8
aV\u6345
aV\u54e7
aV\u4f84
aV\u77e9
aV\u75be
aV\u5a7f
aV\u7eb1
aV\u63e3
aV\u7bad
aV\u7ef5
aV\u9a6e
aV\u723d
aV\u6731
aV\u8fc8
aV\u5eb8
aV\u841d
aV\u5520
aV\u7792
aV\u549b
aV\u754f
aV\u8b6c
aV\u70c1
aV\u690d
aV\u7763
aV\u611a
aV\u625b
aV\u788c
aV\u789f
aV\u4fb5
aV\u845b
aV\u8695
aV\u62e9
aV\u8038
aV\u5bb4
aV\u8c79
aV\u950b
aV\u9885
aV\u5362
aV\u62fc
aV\u5a07
aV\u501a
aV\u6212
aV\u745e
aV\u61be
aV\u69d0
aV\u5a74
aV\u4e56
aV\u5747
aV\u508d
aV\u7aff
aV\u6deb
aV\u54c6
aV\u7fc1
aV\u586b
aV\u6252
aV\u77ac
aV\u62d9
aV\u9cd6
aV\u6380
aV\u76c5
aV\u6986
aV\u55bd
aV\u5c97
aV\u7cd5
aV\u60e0
aV\u8428
aV\u90d1
aV\u500d
aV\u7751
aV\u68cb
aV\u888d
aV\u64a4
aV\u82bd
aV\u8511
aV\u54b8
aV\u901d
aV\u59fb
aV\u629b
aV\u7a9f
aV\u6ea2
aV\u82b3
aV\u8fa8
aV\u4f73
aV\u8471
aV\u95ef
aV\u895f
aV\u5937
aV\u8d2f
aV\u6805
aV\u9a76
aV\u9ece
aV\u8822
aV\u8302
aV\u8e6d
aV\u762b
aV\u4e5e
aV\u63b7
aV\u8155
aV\u5d3d
aV\u63a7
aV\u964b
aV\u96c1
aV\u72ee
aV\u4fcf
aV\u5583
aV\u846b
aV\u7267
aV\u6756
aV\u9709
aV\u6269
aV\u5693
aV\u518c
aV\u5319
aV\u80c0
aV\u5140
aV\u5636
aV\u6e2f
aV\u84b2
aV\u94a5
aV\u727a
aV\u8c05
aV\u7434
aV\u796d
aV\u714e
aV\u6b96
aV\u5406
aV\u95fa
aV\u8109
aV\u8a93
aV\u818f
aV\u6109
aV\u8671
aV\u76d7
aV\u8721
aV\u5478
aV\u64b0
aV\u8baf
aV\u6c41
aV\u5228
aV\u6614
aV\u5021
aV\u6f0f
aV\u50b2
aV\u7ee3
aV\u7728
aV\u8e66
aV\u5fbd
aV\u5378
aV\u67cf
aV\u6bd9
aV\u68a8
aV\u5984
aV\u83bd
aV\u5c60
aV\u90ae
aV\u8d1e
aV\u51cc
aV\u6f5c
aV\u9ad9
aV\u54c9
aV\u8870
aV\u6de4
aV\u7f15
aV\u53fd
aV\u6e20
aV\u8a89
aV\u64a9
aV\u9910
aV\u53e0
aV\u8292
aV\u75ae
aV\u80a2
aV\u516e
aV\u715e
aV\u971c
aV\u718f
aV\u4f3a
aV\u63aa
aV\u9976
aV\u70bc
aV\u63ea
aV\u90ca
aV\u79c6
aV\u94ed
aV\u874e
aV\u987d
aV\u6273
aV\u6760
aV\u83e9
aV\u5d29
aV\u8df5
aV\u6376
aV\u52ab
aV\u960e
aV\u5792
aV\u9171
aV\u9526
aV\u803d
aV\u6016
aV\u80de
aV\u817b
aV\u4e38
aV\u963b
aV\u832c
aV\u4ff1
aV\u65fa
aV\u76cf
aV\u5e01
aV\u8e7f
aV\u552c
aV\u53c9
aV\u8774
aV\u69db
aV\u9e4f
aV\u6842
aV\u772f
aV\u53db
aV\u55e4
aV\u52a3
aV\u7ec5
aV\u4e88
aV\u94c3
aV\u4fd1
aV\u77b3
aV\u85aa
aV\u7ed8
aV\u7fbd
aV\u4ed3
aV\u5220
aV\u618e
aV\u8bf5
aV\u788d
aV\u5ac9
aV\u6df9
aV\u82c7
aV\u6148
aV\u711a
aV\u8be2
aV\u5992
aV\u68ad
aV\u6487
aV\u59da
aV\u8fdd
aV\u6014
aV\u9a73
aV\u7a57
aV\u667e
aV\u7184
aV\u808c
aV\u8925
aV\u5e15
aV\u5915
aV\u60da
aV\u54d0
aV\u7fa1
aV\u5112
aV\u70e4
aV\u9274
aV\u79b9
aV\u54e6
aV\u9e7f
aV\u51ff
aV\u9605
aV\u62df
aV\u7bd3
aV\u7c07
aV\u60e9
aV\u64ae
aV\u8d38
aV\u76c8
aV\u69b4
aV\u8bec
aV\u8748
aV\u6398
aV\u70ec
aV\u6734
aV\u6d74
aV\u5bd3
aV\u8463
aV\u72ed
aV\u5b7d
aV\u714c
aV\u66fc
aV\u7f30
aV\u6d4a
aV\u707c
aV\u6482
aV\u997a
aV\u75a4
aV\u797a
aV\u6bb7
aV\u8d60
aV\u5740
aV\u6674
aV\u6d69
aV\u77a5
aV\u5a9a
aV\u55ef
aV\u886c
aV\u916c
aV\u5c51
aV\u88c1
aV\u564e
aV\u6155
aV\u7a9c
aV\u676d
aV\u7c38
aV\u4faf
aV\u51af
aV\u80e7
aV\u6512
aV\u5de2
aV\u8c0e
aV\u7a83
aV\u72ac
aV\u8c41
aV\u53ae
aV\u579b
aV\u5ba0
aV\u57d9
aV\u9a70
aV\u70d8
aV\u949e
aV\u7a3b
aV\u85af
aV\u964c
aV\u6b49
aV\u5815
aV\u8c26
aV\u9b44
aV\u8017
aV\u9a7b
aV\u7422
aV\u6d95
aV\u78a7
aV\u89c8
aV\u7f34
aV\u4f8d
aV\u88f3
aV\u5527
aV\u68e3
aV\u52c9
aV\u9165
aV\u6390
aV\u8f9f
aV\u6500
aV\u7efd
aV\u8881
aV\u62bc
aV\u8682
aV\u6789
aV\u97f5
aV\u884d
aV\u51f8
aV\u6f6d
aV\u848b
aV\u7a46
aV\u7ca5
aV\u9882
aV\u8e09
aV\u94fe
aV\u7784
aV\u8102
aV\u8679
aV\u7a96
aV\u9a7e
aV\u50e7
aV\u8200
aV\u6cca
aV\u4fef
aV\u8fed
aV\u82f9
aV\u90b9
aV\u778c
aV\u62d8
aV\u7cb9
aV\u6ce3
aV\u5993
aV\u5b87
aV\u643a
aV\u5c4f
aV\u7a1a
aV\u9e70
aV\u6c79
aV\u9119
aV\u4e4d
aV\u7ee9
aV\u662d
aV\u70d9
aV\u6726
aV\u7edc
aV\u74e3
aV\u5bb0
aV\u8681
aV\u6817
aV\u5c34
aV\u62a0
aV\u9699
aV\u5c2c
aV\u7ef7
aV\u6912
aV\u4fa0
aV\u62e3
aV\u5029
aV\u6813
aV\u7840
aV\u65a7
aV\u62cc
aV\u88d5
aV\u6c1b
aV\u8231
aV\u7545
aV\u7abf
aV\u55f7
aV\u55e8
aV\u998b
aV\u58a9
aV\u80ae
aV\u503a
aV\u547b
aV\u6320
aV\u5600
aV\u9006
aV\u8bb6
aV\u68f1
aV\u62fd
aV\u62c2
aV\u8036
aV\u956f
aV\u7638
aV\u6d9b
aV\u5241
aV\u8513
aV\u9661
aV\u55d2
aV\u7597
aV\u8861
aV\u763e
aV\u5965
aV\u7682
aV\u745f
aV\u673d
aV\u6dd8
aV\u8461
aV\u9f9f
aV\u5300
aV\u6dcc
aV\u4fae
aV\u902e
aV\u75f0
aV\u695e
aV\u5239
aV\u8dc4
aV\u79e4
aV\u5e1a
aV\u6ed4
aV\u542e
aV\u6577
aV\u5146
aV\u8bf1
aV\u5f66
aV\u9524
aV\u94f2
aV\u7aa6
aV\u5577
aV\u86e4
aV\u76df
aV\u87c6
aV\u8854
aV\u5c59
aV\u62d3
aV\u6291
aV\u9a7c
aV\u849c
aV\u892a
aV\u5375
aV\u8e74
aV\u6c88
aV\u9e3f
aV\u94ee
aV\u50da
aV\u8e48
aV\u62c7
aV\u5996
aV\u50fb
aV\u5490
aV\u7b5b
aV\u7c7d
aV\u8d8b
aV\u6f09
aV\u8638
aV\u776c
aV\u6c8f
aV\u8d21
aV\u6ba1
aV\u75c7
aV\u8404
aV\u821f
aV\u7ef0
aV\u6350
aV\u6863
aV\u9893
aV\u86db
aV\u57c3
aV\u9576
aV\u71e5
aV\u63f4
aV\u51ef
aV\u7f1a
aV\u8ba5
aV\u8d74
aV\u6566
aV\u803f
aV\u6666
aV\u5960
aV\u56da
aV\u69cc
aV\u74e2
aV\u63fd
aV\u762a
aV\u7eca
aV\u840c
aV\u84c4
aV\u812f
aV\u8c28
aV\u68a7
aV\u5203
aV\u5631
aV\u8dbe
aV\u804b
aV\u6886
aV\u5c65
aV\u6208
aV\u5618
aV\u5783
aV\u795f
aV\u5bc5
aV\u655e
aV\u9f87
aV\u55b3
aV\u80ef
aV\u6670
aV\u76f2
aV\u88c6
aV\u8eaf
aV\u9640
aV\u9a87
aV\u545b
aV\u7a20
aV\u5455
aV\u752b
aV\u9675
aV\u8d4b
aV\u6da9
aV\u7fbf
aV\u7a3d
aV\u8587
aV\u7b06
aV\u9a79
aV\u840e
aV\u8885
aV\u7199
aV\u6e23
aV\u540f
aV\u5026
aV\u7ea3
aV\u54bb
aV\u55bb
aV\u90d7
aV\u5544
aV\u62c4
aV\u6400
aV\u5420
aV\u57a2
aV\u4ef2
aV\u6fa1
aV\u83c7
aV\u55a7
aV\u5256
aV\u7cd9
aV\u6525
aV\u7802
aV\u51a5
aV\u6e83
aV\u9f0e
aV\u89c5
aV\u8d94
aV\u5faa
aV\u56d4
aV\u8f98
aV\u7977
aV\u65a9
aV\u5e05
aV\u5e9a
aV\u5983
aV\u901e
aV\u72e1
aV\u8bde
aV\u87f9
aV\u5ec9
aV\u80ba
aV\u586c
aV\u7ee5
aV\u59dc
aV\u7948
aV\u5deb
aV\u4f1e
aV\u5f26
aV\u717d
aV\u7ce0
aV\u630e
aV\u73b2
aV\u6790
aV\u62d7
aV\u6db5
aV\u8d84
aV\u658b
aV\u9891
aV\u8bb3
aV\u6e17
aV\u971e
aV\u54a3
aV\u56a3
aV\u5179
aV\u9e64
aV\u5f79
aV\u8d6b
aV\u7ff0
aV\u7985
aV\u7bf7
aV\u5d4c
aV\u576f
aV\u57df
aV\u829d
aV\u8086
aV\u9504
aV\u6e0a
aV\u7538
aV\u8d37
aV\u9521
aV\u8338
aV\u568f
aV\u5415
aV\u62a1
aV\u8350
aV\u576a
aV\u7a8d
aV\u640f
aV\u8ddb
aV\u65f7
aV\u765e
aV\u9a84
aV\u68b0
aV\u8bca
aV\u7855
aV\u5659
aV\u6177
aV\u6e3a
aV\u7586
aV\u969c
aV\u4ec6
aV\u90a6
aV\u8869
aV\u79bd
aV\u6687
aV\u54fd
aV\u759a
aV\u9075
aV\u79fd
aV\u780c
aV\u8d50
aV\u867e
aV\u6627
aV\u98d9
aV\u97e6
aV\u5d47
aV\u88b1
aV\u81c0
aV\u7779
aV\u8bc0
aV\u8be7
aV\u9038
aV\u507f
aV\u614e
aV\u5578
aV\u9aa4
aV\u7ede
aV\u9992
aV\u5c9b
aV\u8718
aV\u66ae
aV\u96cc
aV\u9493
aV\u6bef
aV\u63ba
aV\u9601
aV\u75e3
aV\u5764
aV\u51fd
aV\u5a49
aV\u6ede
aV\u622e
aV\u631f
aV\u6485
aV\u699c
aV\u7b95
aV\u8482
aV\u9877
aV\u52ff
aV\u6f47
aV\u500f
aV\u6f84
aV\u7f0e
aV\u55ec
aV\u64c0
aV\u6052
aV\u952e
aV\u57ae
aV\u63cd
aV\u9525
aV\u7109
aV\u82af
aV\u8eac
aV\u8c10
aV\u8877
aV\u8dcb
aV\u9570
aV\u815a
aV\u8680
aV\u5f17
aV\u6073
aV\u660c
aV\u6cb8
aV\u6414
aV\u5494
aV\u917f
aV\u7d6e
aV\u62bb
aV\u6be1
aV\u7525
aV\u852b
aV\u8dfa
aV\u4ea5
aV\u4f36
aV\u72c8
aV\u5561
aV\u733e
aV\u9edd
aV\u5a3c
aV\u6f13
aV\u8096
aV\u5654
aV\u8037
aV\u79c9
aV\u78c1
aV\u65e8
aV\u5fa1
aV\u5b09
aV\u5ef7
aV\u5f0a
aV\u73c2
aV\u76c2
aV\u9508
aV\u5471
aV\u63e9
aV\u83f2
aV\u5951
aV\u574d
aV\u7736
aV\u63b0
aV\u6c82
aV\u9785
aV\u6410
aV\u6055
aV\u764c
aV\u5429
aV\u6748
aV\u5dcd
aV\u6026
aV\u7bd9
aV\u7fd4
aV\u5564
aV\u7470
aV\u978d
aV\u5496
aV\u6816
aV\u8f68
aV\u63a0
aV\u5580
aV\u82d4
aV\u54dd
aV\u4e10
aV\u8e4b
aV\u5624
aV\u9539
aV\u86d9
aV\u6808
aV\u7ba9
aV\u78a1
aV\u7bf1
aV\u60bc
aV\u6bb3
aV\u838e
aV\u9e45
aV\u5cc1
aV\u749c
aV\u781a
aV\u5522
aV\u54bf
aV\u66f3
aV\u5254
aV\u8859
aV\u54d2
aV\u4e54
aV\u59ca
aV\u7261
aV\u5cea
aV\u96b6
aV\u56f5
aV\u60ed
aV\u76f9
aV\u81ca
aV\u8c2d
aV\u7b1b
aV\u728a
aV\u71ce
aV\u8bc3
aV\u84e6
aV\u9528
aV\u8046
aV\u6897
aV\u808b
aV\u8c11
aV\u7eb2
aV\u5844
aV\u7fcc
aV\u6bb4
aV\u819c
aV\u8ff8
aV\u8650
aV\u708a
aV\u72de
aV\u9cde
aV\u608d
aV\u988a
aV\u8327
aV\u504c
aV\u55e5
aV\u970d
aV\u8bc8
aV\u80c1
aV\u5482
aV\u5b99
aV\u8df7
aV\u77e2
aV\u7aa5
aV\u5609
aV\u7f00
aV\u7ea4
aV\u8364
aV\u9b45
aV\u61a8
aV\u953b
aV\u5fe1
aV\u5567
aV\u7830
aV\u664f
aV\u828b
aV\u8815
aV\u6518
aV\u8c2c
aV\u6ca6
aV\u6382
aV\u60e6
aV\u8be1
aV\u52b1
aV\u8e39
aV\u9985
aV\u8058
aV\u79e9
aV\u5353
aV\u8e51
aV\u5188
aV\u5ad2
aV\u7729
aV\u94d0
aV\u68d8
aV\u5ce1
aV\u8d3f
aV\u8c24
aV\u55dd
aV\u7737
aV\u573e
aV\u89d1
aV\u9eef
aV\u4ea2
aV\u82ac
aV\u9f3e
aV\u9ae6
aV\u566a
aV\u5830
aV\u8910
aV\u73ab
aV\u7940
aV\u62bf
aV\u7eba
aV\u5a31
aV\u8c0a
aV\u7ebd
aV\u6c5d
aV\u5514
aV\u7433
aV\u9063
aV\u4ec4
aV\u5c61
aV\u54ee
aV\u6ca5
aV\u7fe9
aV\u8304
aV\u5be5
aV\u562d
aV\u5d2d
aV\u9562
aV\u5f8a
aV\u830e
aV\u67de
aV\u567c
aV\u9889
aV\u6d85
aV\u5480
aV\u72f0
aV\u642a
aV\u8f74
aV\u6c9b
aV\u97e7
aV\u74a7
aV\u6b79
aV\u8019
aV\u5f27
aV\u7efa
aV\u8bc5
aV\u5c49
aV\u5658
aV\u94f8
aV\u65ec
aV\u9ecf
aV\u5962
aV\u6e2d
aV\u7a98
aV\u7b03
aV\u643d
aV\u9e4a
aV\u83b9
aV\u75c9
aV\u82eb
aV\u85c9
aV\u7011
aV\u537f
aV\u7f09
aV\u558b
aV\u62da
aV\u6d8e
aV\u84bf
aV\u64c2
aV\u7b8d
aV\u7f2d
aV\u6c76
aV\u595a
aV\u6684
aV\u6606
aV\u6479
aV\u952f
aV\u739b
aV\u8206
aV\u8475
aV\u536f
aV\u63ac
aV\u63d6
aV\u7960
aV\u7410
aV\u575d
aV\u5fff
aV\u7efc
aV\u61ca
aV\u600f
aV\u55dc
aV\u8783
aV\u6a0a
aV\u6656
aV\u821c
aV\u5bdd
aV\u4e7e
aV\u6da7
aV\u75d4
aV\u6b93
aV\u900a
aV\u549d
aV\u8e31
aV\u631b
aV\u8bb7
aV\u822a
aV\u59be
aV\u56eb
aV\u9a6f
aV\u949d
aV\u5398
aV\u5f98
aV\u52cb
aV\u6396
aV\u5014
aV\u6c69
aV\u97a0
aV\u8749
aV\u82b8
aV\u5e06
aV\u557e
aV\u6cfb
aV\u6ca7
aV\u9edb
aV\u7693
aV\u5555
aV\u6020
aV\u5608
aV\u62ed
aV\u9163
aV\u54d4
aV\u5a1c
aV\u766b
aV\u9535
aV\u6da1
aV\u95f0
aV\u60af
aV\u4fe8
aV\u8fe6
aV\u63ae
aV\u75e8
aV\u6dc5
aV\u90b5
aV\u8611
aV\u6dee
aV\u7511
aV\u527f
aV\u5f77
aV\u6d52
aV\u4f51
aV\u5ad6
aV\u6115
aV\u5ced
aV\u6f58
aV\u55d0
aV\u86c6
aV\u4e15
aV\u7895
aV\u7b0b
aV\u55d1
aV\u693d
aV\u6ee5
aV\u7235
aV\u91b4
aV\u6cf3
aV\u8bdb
aV\u5cd2
aV\u645e
aV\u8424
aV\u8fbd
aV\u62e4
aV\u6421
aV\u8043
aV\u609a
aV\u7fdf
aV\u5486
aV\u6e0d
aV\u8098
aV\u8f67
aV\u5601
aV\u9881
aV\u7c41
aV\u79d2
aV\u5cfb
aV\u672d
aV\u5530
aV\u64d2
aV\u50a8
aV\u86fe
aV\u632b
aV\u76d4
aV\u5f64
aV\u5f1b
aV\u525c
aV\u95f8
aV\u4fa6
aV\u4fd0
aV\u94b3
aV\u6292
aV\u853d
aV\u8c1b
aV\u8892
aV\u7bab
aV\u7738
aV\u5fa8
aV\u60d8
aV\u70e8
aV\u59e5
aV\u9e33
aV\u8737
aV\u9afb
aV\u53a5
aV\u4e5c
aV\u5151
aV\u865e
aV\u9e9f
aV\u7096
aV\u94c5
aV\u64ac
aV\u829c
aV\u9b03
aV\u5c79
aV\u6daf
aV\u6691
aV\u6a71
aV\u8574
aV\u7566
aV\u9e2f
aV\u9896
aV\u60d5
aV\u7f28
aV\u5777
aV\u8921
aV\u773a
aV\u99a8
aV\u8f85
aV\u95e9
aV\u7a23
aV\u5242
aV\u5eb6
aV\u82de
aV\u70ab
aV\u8bfd
aV\u8fea
aV\u6b67
aV\u4ee8
aV\u6954
aV\u6dae
aV\u86b1
aV\u83cc
aV\u4ea8
aV\u6ee8
aV\u5281
aV\u840d
aV\u58ec
aV\u9609
aV\u663c
aV\u6590
aV\u86d0
aV\u5c27
aV\u8f71
aV\u82d5
aV\u533f
aV\u7c0c
aV\u8654
aV\u6a31
aV\u64ce
aV\u62ce
aV\u6467
aV\u64c5
aV\u854a
aV\u9093
aV\u7b38
aV\u77eb
aV\u8d4e
aV\u6c8c
aV\u5ae6
aV\u7da6
aV\u5436
aV\u6005
aV\u5a32
aV\u627c
aV\u84d1
aV\u86af
aV\u504e
aV\u94e1
aV\u6e58
aV\u776b
aV\u5eff
aV\u71a0
aV\u5162
aV\u5e90
aV\u8700
aV\u6c81
aV\u655b
aV\u5b5a
aV\u73ca
aV\u5ca8
aV\u6f88
aV\u57c2
aV\u8537
aV\u8693
aV\u7c3f
aV\u7efe
aV\u6c83
aV\u7b24
aV\u5bc7
aV\u55d6
aV\u8f9c
aV\u6f3e
aV\u4e69
aV\u761f
aV\u8713
aV\u81c3
aV\u6f31
aV\u4e19
aV\u68c2
aV\u4fd8
aV\u97ed
aV\u69a8
aV\u725f
aV\u5f6d
aV\u6cae
aV\u5c39
aV\u7329
aV\u8baa
aV\u5457
aV\u68d5
aV\u873b
aV\u67ad
aV\u8d30
aV\u96cd
aV\u60ee
aV\u9ca7
aV\u852c
aV\u864f
aV\u78b1
aV\u785d
aV\u6593
aV\u8712
aV\u56f1
aV\u88f4
aV\u54a6
aV\u777e
aV\u5e62
aV\u9ab8
aV\u5180
aV\u562c
aV\u4fa3
aV\u88e2
aV\u8e4a
aV\u550f
aV\u7766
aV\u5685
aV\u873f
aV\u5189
aV\u94db
aV\u61ff
aV\u5664
aV\u997d
aV\u4fed
aV\u7a92
aV\u6b86
aV\u8198
aV\u9b13
aV\u5669
aV\u8944
aV\u8f95
aV\u5c4a
aV\u5bb5
aV\u9716
aV\u52df
aV\u8c4c
aV\u58d5
aV\u60f0
aV\u9041
aV\u86a9
aV\u9149
aV\u60eb
aV\u903b
aV\u94a6
aV\u7c9f
aV\u6853
aV\u592d
aV\u5ed3
aV\u5623
aV\u6c70
aV\u91ba
aV\u655d
aV\u9ac5
aV\u7360
aV\u768e
aV\u5baa
aV\u6a58
aV\u5e87
aV\u5a4a
aV\u5f70
aV\u631a
aV\u9ad3
aV\u589f
aV\u6d3d
aV\u8110
aV\u8e0c
aV\u6df3
aV\u7f94
aV\u8c1c
aV\u7aa3
aV\u6079
aV\u8715
aV\u6eba
aV\u729f
aV\u5944
aV\u7984
aV\u809b
aV\u7115
aV\u78fa
aV\u87ba
aV\u5345
aV\u9a88
aV\u8de4
aV\u75f9
aV\u6041
aV\u90a8
aV\u7ab8
aV\u6e14
aV\u9685
aV\u62cb
aV\u5e1c
aV\u51db
aV\u81a8
aV\u51b6
aV\u8c1f
aV\u8549
aV\u67b7
aV\u4ed1
aV\u8210
aV\u541d
aV\u5250
aV\u6bc5
aV\u5195
aV\u53e9
aV\u8f69
aV\u7634
aV\u7eef
aV\u7eeb
aV\u71b9
aV\u98d5
aV\u6387
aV\u723b
aV\u859b
aV\u6dc0
aV\u72c4
aV\u693f
aV\u65cc
aV\u54de
aV\u4f6c
aV\u86a4
aV\u78b4
aV\u80e5
aV\u5f6a
aV\u5a6a
aV\u8258
aV\u692d
aV\u7bdd
aV\u6a50
aV\u52d8
aV\u8151
aV\u6da4
aV\u659f
aV\u732c
aV\u7f06
aV\u8bb9
aV\u8328
aV\u9890
aV\u83c5
aV\u8f97
aV\u7b5d
aV\u85d5
aV\u9175
aV\u5308
aV\u5ba6
aV\u61f5
aV\u8dbf
aV\u4f65
aV\u6ea5
aV\u6a5b
aV\u96f9
aV\u8f73
aV\u6c72
aV\u7ca4
aV\u9eb8
aV\u58e4
aV\u9f8a
aV\u4ed5
aV\u5df3
aV\u6df8
aV\u67ef
aV\u8d4a
aV\u9761
aV\u87c0
aV\u6a80
aV\u634b
aV\u7cc1
aV\u710a
aV\u94ff
aV\u9f8c
aV\u60fa
aV\u5a04
aV\u853c
aV\u4fdf
aV\u90e1
aV\u9ab7
aV\u9ca4
aV\u8fc2
aV\u6868
aV\u556c
aV\u6860
aV\u6427
aV\u4f88
aV\u7aa8
aV\u7aa0
aV\u7ece
aV\u8d41
aV\u7791
aV\u60bb
aV\u6f7a
aV\u531d
aV\u8fe2
aV\u78d9
aV\u524c
aV\u94b9
aV\u587e
aV\u675e
aV\u6cc5
aV\u4ebf
aV\u9187
aV\u98a7
aV\u695d
aV\u4f6f
aV\u94a7
aV\u8d2c
aV\u8912
aV\u6b24
aV\u5fd6
aV\u6004
aV\u75ea
aV\u8707
aV\u57a6
aV\u9cdd
aV\u6bcb
aV\u5570
aV\u96cf
aV\u80ed
aV\u7c91
aV\u6a35
aV\u84d6
aV\u5fd1
aV\u54d5
aV\u4f43
aV\u69bb
aV\u8bbc
aV\u9a86
aV\u5384
aV\u998a
aV\u87cb
aV\u58c5
aV\u6002
aV\u5639
aV\u62ef
aV\u968b
aV\u78f7
aV\u9a8f
aV\u752c
aV\u6ee4
aV\u8052
aV\u8c34
aV\u79e7
aV\u5ce6
aV\u5fcf
aV\u50a9
aV\u835e
aV\u6b83
aV\u7405
aV\u6caa
aV\u4fa5
aV\u7409
aV\u8c25
aV\u85fb
aV\u54fa
aV\u59aa
aV\u621f
aV\u60b4
aV\u86f0
aV\u9503
aV\u566c
aV\u75de
aV\u7eda
aV\u6555
aV\u8c7a
aV\u7e82
aV\u58d1
aV\u6f9c
aV\u6b89
aV\u7be1
aV\u8dda
aV\u6c16
aV\u9610
aV\u60f4
aV\u8c27
aV\u82ad
aV\u8d42
aV\u6866
aV\u4fa8
aV\u7284
aV\u6c90
aV\u7b75
aV\u6f66
aV\u86aa
aV\u904f
aV\u8beb
aV\u733f
aV\u5f08
aV\u83ba
aV\u6cde
aV\u9563
aV\u548f
aV\u8757
aV\u7c27
aV\u5fd0
aV\u64de
aV\u4f83
aV\u54aa
aV\u9550
aV\u5e61
aV\u60b8
aV\u874c
aV\u6cbc
aV\u55df
aV\u94f0
aV\u8113
aV\u9968
aV\u7476
aV\u5238
aV\u784c
aV\u737e
aV\u77bb
aV\u5784
aV\u70af
aV\u8760
aV\u70b3
aV\u8759
aV\u7b94
aV\u7b4f
aV\u79ba
aV\u9611
aV\u56af
aV\u6f29
aV\u8c15
aV\u658c
aV\u9774
aV\u7980
aV\u915d
aV\u6194
aV\u51cb
aV\u970e
aV\u835a
aV\u5364
aV\u8247
aV\u8f84
aV\u7b20
aV\u70bd
aV\u86c9
aV\u533e
aV\u8bd8
aV\u9497
aV\u5e1b
aV\u82d1
aV\u6a61
aV\u520d
aV\u5a11
aV\u55d4
aV\u8335
aV\u553b
aV\u64b8
aV\u5c09
aV\u7099
aV\u6db8
aV\u8367
aV\u94dd
aV\u9abc
aV\u5ce8
aV\u9955
aV\u67ab
aV\u527d
aV\u5c8c
aV\u8c82
aV\u5443
aV\u5e75
aV\u5d34
aV\u680b
aV\u5506
aV\u6d9f
aV\u79a7
aV\u65ef
aV\u8e87
aV\u8d5d
aV\u73d1
aV\u82db
aV\u5b7a
aV\u620a
aV\u8f96
aV\u6021
aV\u5703
aV\u7fb2
aV\u8e52
aV\u6829
aV\u61a7
aV\u7624
aV\u7620
aV\u9a9f
aV\u9556
aV\u8d66
aV\u8c12
aV\u94f3
aV\u5f99
aV\u9e43
aV\u5773
aV\u94ce
aV\u851a
aV\u914c
aV\u6d9d
aV\u8c1a
aV\u81b3
aV\u6ed3
aV\u6064
aV\u952d
aV\u5f6c
aV\u745c
aV\u827e
aV\u796f
aV\u57a3
aV\u7c2a
aV\u6035
aV\u75ab
aV\u6854
aV\u4f0e
aV\u559f
aV\u5919
aV\u867b
aV\u62eb
aV\u900d
aV\u6556
aV\u8e59
aV\u5550
aV\u9083
aV\u5cd9
aV\u954a
aV\u961c
aV\u6ce0
aV\u6eb6
aV\u75b9
aV\u65ee
aV\u606c
aV\u9062
aV\u59a9
aV\u768b
aV\u94ae
aV\u6cfe
aV\u6cd4
aV\u6078
aV\u71ee
aV\u6f78
aV\u9984
aV\u55e3
aV\u51a2
aV\u8e1e
aV\u5bd0
aV\u75a1
aV\u6a1f
aV\u6e32
aV\u70f9
aV\u9050
aV\u51bd
aV\u5ae3
aV\u64bc
aV\u56e4
aV\u5f29
aV\u65ab
aV\u8717
aV\u6eaf
aV\u6840
aV\u8f99
aV\u70e9
aV\u7316
aV\u5b71
aV\u82a5
aV\u79b3
aV\u7540
aV\u78ca
aV\u6fe1
aV\u4e1e
aV\u6043
aV\u6006
aV\u4e98
aV\u6e43
aV\u6371
aV\u5591
aV\u90fe
aV\u8174
aV\u556e
aV\u82b9
aV\u8bcc
aV\u4f63
aV\u4ff8
aV\u500c
aV\u5892
aV\u68b5
aV\u62c8
aV\u8c29
aV\u8e53
aV\u81ba
aV\u7696
aV\u53f1
aV\u9cc5
aV\u8c62
aV\u5c3b
aV\u5428
aV\u6332
aV\u86ca
aV\u57d4
aV\u988d
aV\u4f2b
aV\u6249
aV\u828d
aV\u814c
aV\u972d
aV\u6aa9
aV\u6f8e
aV\u8426
aV\u6e4d
aV\u9572
aV\u7f2a
aV\u83d6
aV\u5953
aV\u9e51
aV\u5d0e
aV\u60c6
aV\u5043
aV\u6063
aV\u5b75
aV\u7c9c
aV\u8936
aV\u6ca4
aV\u951f
aV\u8bcf
aV\u908b
aV\u6a47
aV\u6d43
aV\u5e4c
aV\u9511
aV\u94e7
aV\u7eb6
aV\u7ec9
aV\u745a
aV\u88d4
aV\u6994
aV\u68e0
aV\u6da3
aV\u66a7
aV\u548e
aV\u8230
aV\u61c8
aV\u77d7
aV\u6615
aV\u9997
aV\u9e6d
aV\u8e35
aV\u968d
aV\u9995
aV\u9522
aV\u6dd6
aV\u8bd9
aV\u60cb
aV\u5f5d
aV\u857e
aV\u6714
aV\u81bb
aV\u8c0f
aV\u7eac
aV\u607f
aV\u948e
aV\u8782
aV\u7622
aV\u8bb4
aV\u76bf
aV\u6635
aV\u903e
aV\u71a8
aV\u80b4
aV\u63b3
aV\u789c
aV\u59b2
aV\u8bd3
aV\u85d3
aV\u8568
aV\u782d
aV\u7eab
aV\u7fd5
aV\u8146
aV\u743c
aV\u7194
aV\u8237
aV\u8d3b
aV\u561e
aV\u867c
aV\u77dc
aV\u8202
aV\u7678
aV\u8bf3
aV\u8c1d
aV\u6942
aV\u96a7
aV\u7315
aV\u9619
aV\u9697
aV\u88e8
aV\u6920
aV\u9a6d
aV\u91dc
aV\u80be
aV\u6832
aV\u6441
aV\u5f11
aV\u6dc7
aV\u8398
aV\u78cb
aV\u543f
aV\u6749
aV\u9e4c
aV\u7ee2
aV\u6845
aV\u620c
aV\u63b8
aV\u786b
aV\u8f8d
aV\u8354
aV\u623e
aV\u9631
aV\u5121
aV\u88f1
aV\u593c
aV\u9a7f
aV\u77a0
aV\u57e0
aV\u4f5a
aV\u8d58
aV\u6b81
aV\u9668
aV\u8708
aV\u6e6e
aV\u6a44
aV\u5080
aV\u5484
aV\u701a
aV\u607a
aV\u690b
aV\u6963
aV\u9ed4
aV\u948f
aV\u74e4
aV\u8018
aV\u572a
aV\u69c1
aV\u523d
aV\u9a8b
aV\u7594
aV\u988f
aV\u5c4c
aV\u6984
aV\u5785
aV\u7d0a
aV\u7cb2
aV\u94b5
aV\u996c
aV\u59af
aV\u83c1
aV\u9ad1
aV\u5a0c
aV\u9529
aV\u7f24
aV\u8d43
aV\u7fb9
aV\u8334
aV\u5055
aV\u7ef6
aV\u6b7c
aV\u814b
aV\u9102
aV\u86a3
aV\u9f9b
aV\u57b4
aV\u6c24
aV\u6ccc
aV\u7be6
aV\u8f72
aV\u6c32
aV\u8bab
aV\u87b3
aV\u7168
aV\u70ac
aV\u4ffe
aV\u7699
aV\u9798
aV\u9616
aV\u5733
aV\u6977
aV\u75f1
aV\u8d73
aV\u60ec
aV\u6fb3
aV\u8d32
aV\u5abe
aV\u5453
aV\u5a62
aV\u747e
aV\u8c04
aV\u63c6
aV\u9704
aV\u634c
aV\u7bc6
aV\u637a
aV\u75c2
aV\u8027
aV\u5997
aV\u8bcb
aV\u6939
aV\u7f81
aV\u5e54
aV\u8559
aV\u570f
aV\u564c
aV\u7894
aV\u80db
aV\u6cef
aV\u9e37
aV\u6175
aV\u6d94
aV\u6d66
aV\u9542
aV\u4f50
aV\u7656
aV\u79eb
aV\u690e
aV\u8df6
aV\u63ff
aV\u7b19
aV\u5885
aV\u6a79
aV\u5477
aV\u8343
aV\u4ec3
aV\u5768
aV\u5ccb
aV\u7afa
aV\u620d
aV\u8f94
aV\u7459
aV\u9e5e
aV\u5ff1
aV\u84cd
aV\u5d99
aV\u7901
aV\u5941
aV\u75b5
aV\u84ff
aV\u9991
aV\u61ac
aV\u621b
aV\u6773
aV\u8389
aV\u57ad
aV\u8e3d
aV\u7ff1
aV\u85e9
aV\u61e6
aV\u7f04
aV\u4f8f
aV\u9a81
aV\u90dd
aV\u637b
aV\u8f76
aV\u8e76
aV\u70b7
aV\u6d35
aV\u9c7f
aV\u6e89
aV\u66d9
aV\u76ce
aV\u6003
aV\u6dc6
aV\u5f3c
aV\u8004
aV\u7339
aV\u5a29
aV\u80da
aV\u8d2e
aV\u77bf
aV\u7fce
aV\u99a5
aV\u7726
aV\u72e9
aV\u6f2a
aV\u86f9
aV\u8c55
aV\u5dc5
aV\u67e9
aV\u78ec
aV\u7898
aV\u59ae
aV\u9e41
aV\u7bd1
aV\u6d5a
aV\u9e20
aV\u91aa
aV\u62f7
aV\u64e4
aV\u742c
aV\u8c78
aV\u78c5
aV\u67fb
aV\u4e8a
aV\u6096
aV\u6b46
aV\u5b51
aV\u5c7f
aV\u88c9
aV\u7cbd
aV\u9994
aV\u7352
aV\u82dc
aV\u507b
aV\u9e25
aV\u58f9
aV\u67a2
aV\u9602
aV\u7809
aV\u5b73
aV\u7f05
aV\u96c9
aV\u836a
aV\u5cac
aV\u8ba3
aV\u970f
aV\u9739
aV\u65ed
aV\u5b93
aV\u5537
aV\u9091
aV\u7110
aV\u5315
aV\u7b9d
aV\u67e2
aV\u6636
aV\u9e44
aV\u5f18
aV\u5c96
aV\u6f36
aV\u891b
aV\u5321
aV\u8300
aV\u5c90
aV\u67ec
aV\u6e5b
aV\u520e
aV\u74a8
aV\u83f1
aV\u8e2e
aV\u5594
aV\u5c25
aV\u9551
aV\u7691
aV\u9e36
aV\u6867
aV\u9e73
aV\u61b7
aV\u77ec
aV\u64b7
aV\u7f44
aV\u55f3
aV\u66a8
aV\u7435
aV\u5d02
aV\u62a8
aV\u538d
aV\u987c
aV\u6b9b
aV\u56e1
aV\u95fe
aV\u8709
aV\u777d
aV\u8bee
aV\u9f8b
aV\u8dd7
aV\u6ed5
aV\u5f89
aV\u7280
aV\u608c
aV\u502d
aV\u64ba
aV\u8e69
aV\u7480
aV\u572d
aV\u4f3d
aV\u8f7c
aV\u5f9c
aV\u620e
aV\u86d4
aV\u6d4f
aV\u5135
aV\u8393
aV\u8be3
aV\u80aa
aV\u7337
aV\u4fde
aV\u5d14
aV\u94e0
aV\u8e1d
aV\u6059
aV\u5955
aV\u7bfe
aV\u6eb1
aV\u8934
aV\u9e66
aV\u82ae
aV\u54a9
aV\u8e5a
aV\u6774
aV\u907d
aV\u9ee0
aV\u75e7
aV\u6a59
aV\u5599
aV\u989b
aV\u83e0
aV\u5a1f
aV\u9988
aV\u598a
aV\u80e4
aV\u566b
aV\u725d
aV\u8fe4
aV\u96f3
aV\u7818
aV\u91c9
aV\u7ead
aV\u688f
aV\u8403
aV\u5811
aV\u724d
aV\u8bf0
aV\u9776
aV\u7cbc
aV\u5a20
aV\u7455
aV\u7823
aV\u891a
aV\u6664
aV\u97af
aV\u94d9
aV\u9698
aV\u73d6
aV\u795c
aV\u8763
aV\u6de6
aV\u9540
aV\u97ec
aV\u7941
aV\u81fc
aV\u87d2
aV\u77b0
aV\u9036
aV\u7663
aV\u90e2
aV\u86ed
aV\u7f26
aV\u94e2
aV\u6448
aV\u5fe4
aV\u6c40
aV\u7fe1
aV\u6289
aV\u51eb
aV\u8360
aV\u6c50
aV\u6dfc
aV\u5106
aV\u8314
aV\u9532
aV\u7ce8
aV\u6930
aV\u9e93
aV\u88df
aV\u5e0f
aV\u5c63
aV\u6775
aV\u80b1
aV\u5e7a
aV\u8fc4
aV\u84df
aV\u990d
aV\u5ae1
aV\u78a3
aV\u66dc
aV\u9169
aV\u96bd
aV\u9a78
aV\u7a79
aV\u775a
aV\u6966
aV\u5b5b
aV\u9701
aV\u7a88
aV\u63a3
aV\u7bc1
aV\u5a40
aV\u87fe
aV\u5b40
aV\u6862
aV\u6979
aV\u7606
aV\u5fea
aV\u728b
aV\u94ba
aV\u8888
aV\u98e8
aV\u6cb1
aV\u63c4
aV\u62ee
aV\u7a37
aV\u4fda
aV\u7252
aV\u75bd
aV\u6120
aV\u7a70
aV\u9f88
aV\u9975
aV\u8f90
aV\u92ae
aV\u6e24
aV\u81fb
aV\u749e
aV\u72f2
aV\u9ac1
aV\u7b2b
aV\u7f42
aV\u53f5
aV\u9647
aV\u684e
aV\u6924
aV\u4eb5
aV\u65d6
aV\u4f5d
aV\u636f
aV\u6800
aV\u55fe
aV\u696b
aV\u7b3a
aV\u594e
aV\u783a
aV\u8bd2
aV\u9e35
aV\u5b70
aV\u4f7c
aV\u6855
aV\u9557
aV\u9981
aV\u5b6c
aV\u715c
aV\u61a9
aV\u93ca
aV\u7173
aV\u9035
aV\u7322
aV\u68f0
aV\u73b7
aV\u872e
aV\u98d3
aV\u5b6a
aV\u8a8a
aV\u6d07
aV\u8517
aV\u973e
aV\u7350
aV\u9aa5
aV\u85b0
aV\u6ec2
aV\u6248
aV\u65ce
aV\u5a34
aV\u6fd2
aV\u55eb
aV\u63ce
aV\u6aa0
aV\u82d3
aV\u996f
aV\u9e28
aV\u54a4
aV\u7ebe
aV\u7762
aV\u8e70
aV\u5a13
aV\u86df
aV\u5ff8
aV\u8309
aV\u998f
aV\u502a
aV\u7825
aV\u54d9
aV\u9b46
aV\u772c
aV\u75eb
aV\u9c87
aV\u779f
aV\u7230
aV\u7cef
aV\u9cc4
aV\u6e0e
aV\u759f
aV\u817c
aV\u59ec
aV\u71c9
aV\u6f62
aV\u626a
aV\u6029
aV\u64a7
aV\u914a
aV\u7578
aV\u84c1
aV\u652b
aV\u996a
aV\u5dfd
aV\u7c7c
aV\u8084
aV\u7ecc
aV\u6c28
aV\u9c88
aV\u572e
aV\u63f6
aV\u6b3b
aV\u6893
aV\u6cbd
aV\u87e0
aV\u8be8
aV\u55de
aV\u55f5
aV\u6e4e
aV\u9aef
aV\u6978
aV\u8c21
aV\u9706
aV\u7f01
aV\u7905
aV\u871a
aV\u8a07
aV\u558f
aV\u6cf5
aV\u6bf5
aV\u7fbc
aV\u954c
aV\u524e
aV\u625c
aV\u6aac
aV\u80f0
aV\u7768
aV\u9713
aV\u5e8b
aV\u9f0b
aV\u634d
aV\u951a
aV\u7504
aV\u65a1
aV\u840b
aV\u6c27
aV\u6bd3
aV\u82ce
aV\u7a17
aV\u701b
aV\u63bc
aV\u571c
aV\u53df
aV\u89e5
aV\u6d0c
aV\u5e96
aV\u592f
aV\u72b7
aV\u8317
aV\u67d9
aV\u9e3e
aV\u4ff3
aV\u5225
aV\u717a
aV\u8299
aV\u5621
aV\u742a
aV\u8c00
aV\u7426
aV\u66dd
aV\u5f8c
aV\u5d4b
aV\u631e
aV\u95fd
aV\u8c17
aV\u7313
aV\u8845
aV\u9604
aV\u7116
aV\u5dc9
aV\u8c68
aV\u56ef
aV\u6c7e
aV\u5ab2
aV\u9ab0
aV\u5197
aV\u647a
aV\u9e49
aV\u7ab3
aV\u7f31
aV\u9b08
aV\u94de
aV\u709c
aV\u75ca
aV\u7b85
aV\u71b3
aV\u5463
aV\u7579
aV\u699b
aV\u98a6
aV\u4eb3
aV\u8301
aV\u5739
aV\u7425
aV\u5fd2
aV\u95f6
aV\u76cd
aV\u8bdf
aV\u8401
aV\u832f
aV\u9a93
aV\u86c0
aV\u97f6
aV\u680a
aV\u605a
aV\u598d
aV\u7962
aV\u74ff
aV\u7f79
aV\u7b25
aV\u9978
aV\u561a
aV\u755a
aV\u7743
aV\u7119
aV\u956c
aV\u9974
aV\u54c2
aV\u7f19
aV\u66be
aV\u5048
aV\u8d20
aV\u92c8
aV\u989a
aV\u8e0a
aV\u816d
aV\u6c4a
aV\u748b
aV\u6874
aV\u50a5
aV\u8171
aV\u8006
aV\u8734
aV\u84c9
aV\u6bd7
aV\u5414
aV\u679e
aV\u71e7
aV\u88d8
aV\u9979
aV\u9cb6
aV\u5bb8
aV\u8725
aV\u7583
aV\u6d93
aV\u9a9b
aV\u600d
aV\u73c0
aV\u7596
aV\u834f
aV\u50c7
aV\u643f
aV\u949b
aV\u9088
aV\u80e8
aV\u5958
aV\u9730
aV\u8a79
aV\u9ca8
aV\u6100
aV\u7f14
aV\u9e2a
aV\u54b9
aV\u9967
aV\u81ec
aV\u7436
aV\u783e
aV\u7f27
aV\u8a48
aV\u7fe6
aV\u6e86
aV\u73b8
aV\u7ee6
aV\u94e9
aV\u8031
aV\u790c
aV\u70fd
aV\u869c
aV\u6cd3
aV\u9a9c
aV\u766f
aV\u61cb
aV\u5501
aV\u599e
aV\u887e
aV\u5edb
aV\u8be9
aV\u8339
aV\u607b
aV\u501c
aV\u7f2e
aV\u6092
aV\u9cab
aV\u6f4d
aV\u5f01
aV\u82a8
aV\u975b
aV\u4e9f
aV\u7850
aV\u4f5e
aV\u90b8
aV\u7a95
aV\u94a1
aV\u9e92
aV\u950c
aV\u8c32
aV\u6dd9
aV\u56ff
aV\u8941
aV\u9a77
aV\u6e1a
aV\u80f1
aV\u67b3
aV\u794c
aV\u7f22
aV\u9792
aV\u4f97
aV\u59a3
aV\u5412
aV\u9b23
aV\u52be
aV\u6322
aV\u897b
aV\u82cb
aV\u88bc
aV\u4e53
aV\u6dbf
aV\u9617
aV\u9004
aV\u556d
aV\u84d3
aV\u6654
aV\u83fd
aV\u4f25
aV\u8db8
aV\u623d
aV\u6d63
aV\u575e
aV\u94b4
aV\u9e82
aV\u65d2
aV\u877b
aV\u72f7
aV\u9765
aV\u636d
aV\u8bf2
aV\u7321
aV\u7812
aV\u6619
aV\u5c50
aV\u540b
aV\u7325
aV\u6988
aV\u7efb
aV\u80c4
aV\u57a0
aV\u580b
aV\u6fef
aV\u8087
aV\u5454
aV\u72fb
aV\u8c2f
aV\u9052
aV\u5ce5
aV\u98a2
aV\u9c8b
aV\u629f
aV\u6a84
aV\u8983
aV\u8446
aV\u83df
aV\u7094
aV\u839e
aV\u5f0b
aV\u9ca2
aV\u5807
aV\u810d
aV\u9bdb
aV\u54ab
aV\u581e
aV\u7e9b
aV\u5e5b
aV\u67e0
aV\u61d1
aV\u731d
aV\u6d38
aV\u9ac0
aV\u740a
aV\u81e7
aV\u607d
aV\u680e
aV\u9e42
aV\u5f57
aV\u5f40
aV\u5472
aV\u80eb
aV\u9021
aV\u69f2
aV\u4ede
aV\u5e27
aV\u6c46
aV\u89f3
aV\u72fa
aV\u8c47
aV\u763f
aV\u5a77
aV\u8c19
aV\u6dc4
aV\u6883
aV\u7228
aV\u7ae3
aV\u6b59
aV\u8d6d
aV\u85dc
aV\u4f6b
aV\u52ac
aV\u4fea
aV\u5b5c
aV\u7c74
aV\u50ed
aV\u8fe8
aV\u868c
aV\u7e5d
aV\u6b69
aV\u6428
aV\u955e
aV\u5d58
aV\u82fb
aV\u51c7
aV\u7574
aV\u8be0
aV\u7eee
aV\u75b1
aV\u8153
aV\u5208
aV\u555c
aV\u7f2b
aV\u5ed6
aV\u606b
aV\u88f0
aV\u518b
aV\u65c3
aV\u7a14
aV\u71f9
aV\u6cf1
aV\u8616
aV\u4f70
aV\u87ca
aV\u9cce
aV\u777f
aV\u77a9
aV\u77fd
aV\u5e37
aV\u8235
aV\u63b4
aV\u835f
aV\u9963
aV\u6b92
aV\u52ad
aV\u8bfc
aV\u9f89
aV\u902d
aV\u9157
aV\u8722
aV\u5742
aV\u4e52
aV\u8913
aV\u6777
aV\u817a
aV\u6ee6
aV\u6151
aV\u905b
aV\u5533
aV\u8d63
aV\u55b5
aV\u5709
aV\u7708
aV\u709d
aV\u86e9
aV\u5c9a
aV\u59ee
aV\u9a85
aV\u94c6
aV\u541c
aV\u88a4
aV\u66e6
aV\u76a4
aV\u728d
aV\u7826
aV\u7f54
aV\u953a
aV\u89de
aV\u5421
aV\u7854
aV\u6ddd
aV\u72ce
aV\u8c2e
aV\u7b4c
aV\u6bec
aV\u9ccf
aV\u96bc
aV\u7b0f
aV\u62ca
aV\u933e
aV\u86b0
aV\u7db7
aV\u553c
aV\u7a39
aV\u8e14
aV\u7357
aV\u6c54
aV\u82a1
aV\u5556
aV\u54eb
aV\u9541
aV\u674c
aV\u7f07
aV\u9a8a
aV\u7198
aV\u9b1f
aV\u5a75
aV\u7b1e
aV\u6ebb
aV\u8cbc
aV\u6b8d
aV\u6126
aV\u8df9
aV\u996b
aV\u9573
aV\u5575
aV\u837b
aV\u992e
aV\u6eb7
aV\u8ca1
aV\u7672
aV\u951b
aV\u7ec2
aV\u59d8
aV\u7a03
aV\u5ad8
aV\u94e3
aV\u7ba7
aV\u4f89
aV\u80d7
aV\u98e7
aV\u59d2
aV\u681d
aV\u8e9e
aV\u90a2
aV\u7e29
aV\u7f12
aV\u5b95
aV\u8bb5
aV\u9ee7
aV\u8f87
aV\u5c91
aV\u6456
aV\u5476
aV\u6e1d
aV\u79d5
aV\u9537
aV\u87b5
aV\u7f25
aV\u784b
aV\u90e7
aV\u5526
aV\u8e42
aV\u977c
aV\u6b84
aV\u7ccd
aV\u543d
aV\u7080
aV\u9c9e
aV\u8ba6
aV\u7256
aV\u7ff3
aV\u7b0a
aV\u8893
aV\u8e7c
aV\u870d
aV\u88fe
aV\u7cdc
aV\u9a9e
aV\u8e8f
aV\u90db
aV\u9509
aV\u7a02
aV\u8f8f
aV\u837c
aV\u6e25
aV\u782c
aV\u52f0
aV\u8c20
aV\u8d61
aV\u4e8d
aV\u7f2c
aV\u85d0
aV\u9a83
aV\u7630
aV\u7ec1
aV\u6f4b
aV\u6edf
aV\u85ae
aV\u9990
aV\u612b
aV\u914b
aV\u5eea
aV\u9a7d
aV\u6987
aV\u82c1
aV\u9ebe
aV\u7078
aV\u8e47
aV\u890a
aV\u4f86
aV\u5914
aV\u870a
aV\u54d3
aV\u8e84
aV\u94be
aV\u86f3
aV\u6c2f
aV\u8c5a
aV\u67c8
aV\u77bd
aV\u8919
aV\u8deb
aV\u53a9
aV\u9ccd
aV\u7452
aV\u577b
aV\u9b47
aV\u4fa9
aV\u84ba
aV\u77ad
aV\u91ae
aV\u8bff
aV\u5d1b
aV\u8e7d
aV\u532e
aV\u7edb
aV\u848c
aV\u5358
aV\u4f7b
aV\u7f9a
aV\u9f2c
aV\u6215
aV\u714a
aV\u5d82
aV\u61d4
aV\u8785
aV\u652e
aV\u900b
aV\u6217
aV\u832d
aV\u67da
aV\u6dde
aV\u8c89
aV\u7827
aV\u8340
aV\u8703
aV\u98d2
aV\u8385
aV\u8244
aV\u6ec7
aV\u8e9c
aV\u6600
aV\u6c5c
aV\u960b
aV\u75e2
aV\u6d5c
aV\u5f65
aV\u9026
aV\u6841
aV\u9ae1
aV\u7f23
aV\u84ca
aV\u8803
aV\u9ca0
aV\u82f4
aV\u59e3
aV\u96d2
aV\u9791
aV\u8e40
aV\u6308
aV\u5924
aV\u8de9
aV\u4faa
aV\u7317
aV\u5d4a
aV\u8fe9
aV\u86f8
aV\u9485
aV\u8e7e
aV\u67b8
aV\u5cb1
aV\u97ab
aV\u6a3e
aV\u75ac
aV\u9e31
aV\u9f85
aV\u82d2
aV\u5942
aV\u5187
aV\u9e57
aV\u986e
aV\u88ce
aV\u949c
aV\u5bee
aV\u802a
aV\u5d6c
aV\u65bc
aV\u9a92
aV\u6603
aV\u9b51
aV\u6989
aV\u544b
aV\u6657
aV\u6c5b
aV\u7c26
aV\u8158
aV\u6e72
aV\u9f10
aV\u8d5c
aV\u8d99
aV\u5ca3
aV\u9cb8
aV\u55be
aV\u98a1
aV\u69ab
aV\u835c
aV\u9c8e
aV\u7513
aV\u7391
aV\u6e98
aV\u821b
aV\u82b0
aV\u8bd6
aV\u6c85
aV\u8882
aV\u90d3
aV\u6fc2
aV\u65c6
aV\u869d
aV\u5466
aV\u6998
aV\u9ee2
aV\u7750
aV\u7ee1
aV\u7f0b
aV\u9a8e
aV\u8e41
aV\u86cf
aV\u5202
aV\u8ca9
aV\u8160
aV\u6a3d
aV\u795b
aV\u7b31
aV\u93d6
aV\u6d54
aV\u5a9f
aV\u7889
aV\u84a1
aV\u5b34
aV\u83cf
aV\u68bf
aV\u6dd2
aV\u8dbc
aV\u7735
aV\u83bc
aV\u7aab
aV\u873e
aV\u5aeb
aV\u95f5
aV\u69b7
aV\u66e9
aV\u95f1
aV\u8627
aV\u5647
aV\u67d2
aV\u745b
aV\u94f1
aV\u7431
aV\u8c0c
aV\u535e
aV\u8d4d
aV\u6bce
aV\u9e6b
aV\u8368
aV\u5f95
aV\u98d0
aV\u9161
aV\u6971
aV\u4f5f
aV\u5cbf
aV\u6484
aV\u9cd4
aV\u87ee
aV\u74ba
aV\u75e4
aV\u8db1
aV\u866c
aV\u91e3
aV\u754b
aV\u9124
aV\u5676
aV\u646d
aV\u6106
aV\u7166
aV\u54a8
aV\u8d59
aV\u7f1f
aV\u7266
aV\u75ff
aV\u9878
aV\u9f0d
aV\u659b
aV\u4ec2
aV\u5cb7
aV\u5db7
aV\u6ec1
aV\u7e9f
aV\u75d8
aV\u9cdf
aV\u4f7e
aV\u5bf0
aV\u5581
aV\u9e87
aV\u6ea7
aV\u5fdd
aV\u668c
aV\u94c0
aV\u9183
aV\u868b
aV\u4ebb
aV\u6fd1
aV\u902f
aV\u9e46
aV\u8378
aV\u7780
aV\u80fa
aV\u5981
aV\u5e44
aV\u760a
aV\u59ab
aV\u627d
aV\u5b16
aV\u5c44
aV\u5535
aV\u4fce
aV\u9f83
aV\u9a96
aV\u8315
aV\u6294
aV\u81fe
aV\u69a3
aV\u705e
aV\u877c
aV\u6f8c
aV\u6c21
aV\u853b
aV\u6153
aV\u63be
aV\u8369
aV\u82fe
aV\u81c1
aV\u4e1f
aV\u5423
aV\u6b87
aV\u4ef5
aV\u6f74
aV\u9a90
aV\u7852
aV\u9e29
aV\u7893
aV\u8c30
aV\u4f32
aV\u82ef
aV\u8c06
aV\u6809
aV\u5b7f
aV\u9894
aV\u78d4
aV\u96e0
aV\u7b93
aV\u6fdb
aV\u4f1b
aV\u5d27
aV\u67b5
aV\u879f
aV\u60b1
aV\u6cee
aV\u57a9
aV\u988c
aV\u5310
aV\u4f58
aV\u51bc
aV\u9753
aV\u829f
aV\u936a
aV\u8f6d
aV\u977d
aV\u8406
aV\u4fac
aV\u9512
aV\u5a23
aV\u5155
aV\u7b78
aV\u71d4
aV\u73ad
aV\u5704
aV\u7c9e
aV\u50d6
aV\u94ef
aV\u752f
aV\u52d6
aV\u5541
aV\u7f1c
aV\u989f
aV\u6a28
aV\u915a
aV\u4fe6
aV\u712f
aV\u7b33
aV\u9cb2
aV\u6715
aV\u5549
aV\u837d
aV\u5b17
aV\u75c8
aV\u827d
aV\u6fb9
aV\u9f19
aV\u6793
aV\u8012
aV\u8629
aV\u9e2c
aV\u97b2
aV\u7787
aV\u961d
aV\u8be4
aV\u7487
aV\u603f
aV\u82be
aV\u74f2
aV\u4edf
aV\u9176
aV\u530d
aV\u748e
aV\u8585
aV\u5ffe
aV\u8872
aV\u6445
aV\u7a51
aV\u94a0
aV\u9a95
aV\u656b
aV\u7b3e
aV\u9e50
aV\u5e3b
aV\u87ab
aV\u5e11
aV\u6641
aV\u6d2e
aV\u753e
aV\u83dd
aV\u94a8
aV\u8bc2
aV\u81c6
aV\u7ea5
aV\u8f44
aV\u7292
aV\u94bf
aV\u5793
aV\u96e9
aV\u9e39
aV\u7fb8
aV\u553f
aV\u5028
aV\u9a7a
aV\u577c
aV\u7f36
aV\u95fc
aV\u7704
aV\u572f
aV\u94af
aV\u7c1f
aV\u88fc
aV\u7f08
aV\u8c2a
aV\u82e1
aV\u83a0
aV\u7f9d
aV\u726f
aV\u5f87
aV\u736f
aV\u7eb0
aV\u7145
aV\u7b08
aV\u54ad
aV\u5287
aV\u8fe5
aV\u7f45
aV\u965f
aV\u6960
aV\u5fc4
aV\u54b5
aV\u5fad
aV\u741b
aV\u9531
aV\u8ae5
aV\u5a05
aV\u9a98
aV\u8bce
aV\u73de
aV\u84fc
aV\u771b
aV\u8599
aV\u78bb
aV\u881b
aV\u8d49
aV\u6e5f
aV\u866f
aV\u8d08
aV\u90a1
aV\u7950
aV\u76e5
aV\u9e55
aV\u757a
aV\u7f7e
aV\u740f
aV\u826b
aV\u7c95
aV\u89c7
aV\u8082
aV\u750f
aV\u5ebe
aV\u6ac6
aV\u8e49
aV\u7967
aV\u7b2a
aV\u9536
aV\u7cbb
aV\u73e5
aV\u9264
aV\u7576
aV\u6285
aV\u9560
aV\u5c66
aV\u4f47
aV\u4fdc
aV\u7f91
aV\u90cf
aV\u7be9
aV\u88b4
aV\u954d
aV\u685f
aV\u6cdd
aV\u86d6
aV\u70bb
aV\u953e
aV\u4fc5
aV\u7654
aV\u7fe5
aV\u9468
aV\u8186
aV\u86b4
aV\u6bc2
aV\u665f
aV\u97ea
aV\u6aec
aV\u8473
aV\u9e3a
aV\u8bac
aV\u50a7
aV\u6aab
aV\u752a
aV\u6c44
aV\u6648
aV\u9acb
aV\u54ff
aV\u8386
aV\u76a8
aV\u5ce4
aV\u9514
aV\u60dd
aV\u53fb
aV\u831b
aV\u86de
aV\u9977
aV\u5712
aV\u67dd
aV\u9068
aV\u696e
aV\u8dd6
aV\u7839
aV\u5be4
aV\u65f0
aV\u6844
aV\u7c4c
aV\u7650
aV\u5925
aV\u9751
aV\u8fd6
aV\u89da
aV\u727e
aV\u6631
aV\u6cc2
aV\u6dec
aV\u771a
aV\u62b7
aV\u6e54
aV\u5156
aV\u7b72
aV\u66a4
aV\u8277
aV\u830c
aV\u6222
aV\u4f94
aV\u56d8
aV\u5a06
aV\u741a
aV\u6c2a
aV\u8236
aV\u8564
aV\u766e
aV\u9082
aV\u5d06
aV\u6e67
aV\u946b
aV\u668d
aV\u9e32
aV\u8dfd
aV\u6339
aV\u9b49
aV\u906f
aV\u7085
aV\u7a1e
aV\u50c5
aV\u72d9
aV\u55c9
aV\u5880
aV\u68a0
aV\u53b2
aV\u6d39
aV\u9549
aV\u6cf8
aV\u7faf
aV\u75b3
aV\u8e3a
aV\u89cb
aV\u9aed
aV\u97b4
aV\u9ec3
aV\u9e58
aV\u7172
aV\u80bc
aV\u6067
aV\u74f4
aV\u592c
aV\u7d44
aV\u6c7a
aV\u7f03
aV\u51dc
aV\u81a9
aV\u4fcd
aV\u5088
aV\u69ce
aV\u5b84
aV\u7707
aV\u731e
aV\u7b6e
aV\u7407
aV\u96b0
aV\u6b39
aV\u9904
aV\u8114
aV\u9a99
aV\u6c22
aV\u82a9
aV\u73b3
aV\u6313
aV\u98da
aV\u80ea
aV\u58bb
aV\u6d5e
aV\u560f
aV\u86c4
aV\u75a3
aV\u8605
aV\u71e0
aV\u8db5
aV\u6f5e
aV\u70f7
aV\u822b
aV\u67ae
aV\u9037
aV\u80ad
aV\u8201
aV\u9b3b
aV\u9e69
aV\u9efe
aV\u87ad
aV\u6c30
aV\u77cd
aV\u6c06
aV\u938f
aV\u4edd
aV\u530f
aV\u889e
aV\u7953
aV\u67c1
aV\u704f
aV\u656d
aV\u5e91
aV\u6343
aV\u670a
aV\u6634
aV\u63b2
aV\u660a
aV\u831c
aV\u86b5
aV\u65f3
aV\u9011
aV\u9615
aV\u7553
aV\u6c84
aV\u9515
aV\u8cc4
aV\u8fee
aV\u6802
aV\u6206
aV\u639b
aV\u5c7a
aV\u5713
aV\u5167
aV\u9028
aV\u6e2c
aV\u7490
aV\u9fa2
aV\u8c2b
aV\u6647
aV\u79a3
aV\u8ead
aV\u8fd7
aV\u5a7a
aV\u507e
aV\u7f8c
aV\u9215
aV\u4f57
aV\u86f2
aV\u9e8b
aV\u82c8
aV\u9ab9
aV\u70d5
aV\u6a19
aV\u789b
aV\u85b9
aV\u8478
aV\u6eff
aV\u8765
aV\u736d
aV\u799b
aV\u7f9f
aV\u6538
aV\u6c29
aV\u7b47
aV\u6de8
aV\u74ef
aV\u7719
aV\u8c3f
aV\u94c4
aV\u50ec
aV\u7b71
aV\u85fa
aV\u5216
aV\u7619
aV\u949a
aV\u6221
aV\u81cc
aV\u82f6
aV\u966c
aV\u72ef
aV\u7e47
aV\u5889
aV\u9642
aV\u932f
aV\u8bd4
aV\u808f
aV\u919a
aV\u7f71
aV\u7934
aV\u69ff
aV\u9005
aV\u88aa
aV\u89d4
aV\u6d0e
aV\u6ca3
aV\u7d19
aV\u94c8
aV\u898b
aV\u603c
aV\u63d1
aV\u7688
aV\u4f39
aV\u823b
aV\u7371
aV\u8793
aV\u80bd
aV\u5107
aV\u88a2
aV\u786d
aV\u730a
aV\u4f22
aV\u5cab
aV\u7430
aV\u87bd
aV\u7b5a
aV\u57dd
aV\u9e6c
aV\u83aa
aV\u5f2d
aV\u84d0
aV\u6053
aV\u8169
aV\u56dd
aV\u8411
aV\u7747
aV\u83d4
aV\u8069
aV\u67d1
aV\u4f76
aV\u7771
aV\u5e81
aV\u6b38
aV\u606a
aV\u8e61
aV\u6fe0
aV\u647d
aV\u5810
aV\u8297
aV\u94a3
aV\u69b1
aV\u5d3e
aV\u754e
aV\u558e
aV\u7911
aV\u6d9e
aV\u602b
aV\u78d0
aV\u74b9
aV\u9538
aV\u78a6
aV\u8543
aV\u8bdc
aV\u9162
aV\u6c74
aV\u787c
aV\u86d8
aV\u94e4
aV\u812c
aV\u6042
aV\u845a
aV\u8ff3
aV\u56f9
aV\u6f33
aV\u65c4
aV\u954f
aV\u560c
aV\u85c1
aV\u8556
aV\u8284
aV\u9c90
aV\u5023
aV\u924f
aV\u79fe
aV\u83ef
aV\u7178
aV\u508e
aV\u9efb
aV\u948c
aV\u7ed0
aV\u8cdc
aV\u69df
aV\u52f9
aV\u90ba
aV\u4e04
aV\u9166
aV\u52bc
aV\u7f65
aV\u94e8
aV\u73e7
aV\u89eb
aV\u9190
aV\u8347
aV\u9553
aV\u8dd8
aV\u956a
aV\u55ea
aV\u6fee
aV\u917d
aV\u63db
aV\u6c05
aV\u78a2
aV\u9b4b
aV\u584d
aV\u73d0
aV\u7669
aV\u5ba5
aV\u8234
aV\u81c9
aV\u57fd
aV\u9490
aV\u6a2f
aV\u723f
aV\u9612
aV\u79e3
aV\u8188
aV\u6c96
aV\u6d2b
aV\u9aba
aV\u5451
aV\u557b
aV\u6a18
aV\u809f
aV\u67b1
aV\u6cd7
aV\u5864
aV\u9766
aV\u916a
aV\u88ef
aV\u5ab8
aV\u7f61
aV\u57e6
aV\u567b
aV\u73fe
aV\u000a
aV\u89ef
aV\u7ca2
aV\u7946
aV\u654e
aV\u8966
aV\u96ef
aV\u566f
aV\u7bf2
aV\u61f6
aV\u9806
aV\u5558
aV\u736c
aV\u781c
aV\u902c
aV\u883c
aV\u93c1
aV\u955a
aV\u7301
aV\u5182
aV\u562e
aV\u80cd
aV\u887d
aV\u6efe
aV\u9c9b
aV\u9e47
aV\u9edc
aV\u63fa
aV\u8662
aV\u8dfb
aV\u4f27
aV\u9143
aV\u8238
aV\u8125
aV\u956d
aV\u952c
aV\u7fdb
aV\u6d7c
aV\u86b6
aV\u539d
aV\u5d2e
aV\u77b5
aV\u9880
aV\u7d59
aV\u9cd8
aV\u7a42
aV\u9e5a
aV\u9980
aV\u6b37
aV\u673f
aV\u6861
aV\u7f59
aV\u6d65
aV\u7fee
aV\u817d
aV\u8862
aV\u617c
aV\u6415
aV\u62a6
aV\u5649
aV\u6669
aV\u6cfa
aV\u4e0c
aV\u863c
aV\u7ed7
aV\u5f82
aV\u5ada
aV\u843c
aV\u81d5
aV\u951d
aV\u6c37
aV\u8fb6
aV\u83be
aV\u5349
aV\u5bc3
aV\u86d1
aV\u73c8
aV\u9463
aV\u5d69
aV\u8d48
aV\u4f74
aV\u7afd
aV\u8b07
aV\u52a2
aV\u58a6
aV\u918d
aV\u82ab
aV\u753a
aV\u876e
aV\u7e3e
aV\u9ee9
aV\u7f68
aV\u866e
aV\u950f
aV\u8c35
aV\u80c2
aV\u8cca
aV\u7ae6
aV\u760c
aV\u7536
aV\u5ad4
aV\u9e67
aV\u8103
aV\u6c86
aV\u86ab
aV\u6417
aV\u89ca
aV\u9954
aV\u9654
aV\u6b82
aV\u686b
aV\u8816
aV\u8548
aV\u635c
aV\u8307
aV\u5011
aV\u5b37
aV\u69ed
aV\u809c
aV\u9aa0
aV\u8535
aV\u9495
aV\u5d24
aV\u5eb9
aV\u80dd
aV\u7b60
aV\u835b
aV\u6d6f
aV\u8c40
aV\u638a
aV\u641b
aV\u523f
aV\u75e6
aV\u8c16
aV\u9e22
aV\u8d40
aV\u8148
aV\u886e
aV\u5f37
aV\u77bc
aV\u84c6
aV\u7610
aV\u5293
aV\u7ecb
aV\u8572
aV\u4f96
aV\u9c8d
aV\u9095
aV\u5ca2
aV\u67b0
aV\u7bb8
aV\u67a5
aV\u9498
aV\u9016
aV\u961a
aV\u8222
aV\u536c
aV\u867a
aV\u4e93
aV\u4e28
aV\u83e1
aV\u6260
aV\u840f
aV\u66b8
aV\u68bc
aV\u8867
aV\u746f
aV\u762e
aV\u6236
aV\u9544
aV\u84e5
aV\u8276
aV\u847a
aV\u55c4
aV\u6c55
aV\u56ee
aV\u9516
aV\u68d3
aV\u56d7
aV\u8813
aV\u82a4
aV\u7949
aV\u75d6
aV\u868d
aV\u981e
aV\u93af
aV\u683e
aV\u88e9
aV\u830f
aV\u7bb4
aV\u7441
aV\u50ee
aV\u9185
aV\u8e50
aV\u638e
aV\u9f31
aV\u8fbb
aV\u7d5c
aV\u8d67
aV\u951e
aV\u7aac
aV\u9131
aV\u76b4
aV\u8dce
aV\u9ac2
aV\u7573
aV\u96b3
aV\u86a8
aV\u5fee
aV\u80fc
aV\u8291
aV\u89b7
aV\u8ece
aV\u6e0c
aV\u911e
aV\u9607
aV\u89ce
aV\u9672
aV\u68f9
aV\u7f17
aV\u751b
aV\u8839
aV\u761b
aV\u70b4
aV\u7945
aV\u6d4d
aV\u965b
aV\u4ff6
aV\u6710
aV\u6114
aV\u7432
aV\u683a
aV\u83a8
aV\u7845
a.