(lp1
V\u3002
aV\uff0c
aV\u6211
aV\u4e86
aV\u7684
aV\u4e0d
aV\u4f60
aV\u5566
aV\u95ee
aV\u56de
aV\u9898
aV\u6709
aV\u597d
aV\u7b54
aV\u54fc
aV\u662f
aV\u5728
aV\u6ca1
aV\u8981
aV\u6765
aV\u591a
aV\u5929
aV\u554a
aV\u540c
aV\u60f3
aV\u4e00
aV\u73b0
aV\u6837
aV\u5c11
aV\u73a9
aV\u6cd5
aV\u76f4
aV\u518d
aV\u591f
aV\u7b80
aV\u904d
aV\u65e0
aV\u5450
aV\u53d7
aV\u70e6
aV\u5fcd
aV\u4ea4
aV\u4efb
aV\u8ba8
aV\u4f55
aV\u538c
aV\u62d2
aV\u8c08
aV\u7edd
aV\u4e2a
aV\u4e48
aV\u5c31
aV\u5927
aV\u5e74
aV\u8fd9
aV\u5feb
aV\u4eba
aV\u5427
aV\u8fd8
aV\u8c22
aV\u4ee5
aV\u770b
aV\u5bb6
aV\u53ef
aV\u53d1
aV\u5b66
aV\u53bb
aV\u4e5f
aV\u54c8
aV\u65b0
aV\u4eec
aV\u4e50
aV\u5417
aV\u8fc7
aV\u55ef
aV\u7528
aV\u4e0b
aV\u90a3
aV\u90fd
aV\u5230
aV\u8001
aV\u8bf4
aV\u4e0a
aV\u7b11
aV\u8138
aV\u673a
aV\u6342
aV\u80fd
aV\u5462
aV\u5e08
aV\u65f6
aV\u54e6
aV\u5f97
aV\u4f1a
aV\u5440
aV\u600e
aV\u4ec0
aV\u5f3a
aV\u795d
aV\u7259
aV\u751f
aV\u5472
aV\u540e
aV\u70b9
aV\u5206
aV\u5bf9
aV\u6587
aV\u5f88
aV\u5fae
aV\u7ed9
aV\u5f00
aV\u505a
aV\u77e5
aV\u8036
aV\u548c
aV\u4e3a
aV\u5982
aV\u5b50
aV\u4e8b
aV\u89c9
aV\u7406
aV\u5c0f
aV\u91cc
aV\u9053
aV\u660e
aV\u5de5
aV\u5305
aV\u8bdd
aV\u592a
aV\u5668
aV\u9e21
aV\u624b
aV\u7b97
aV\u5b9e
aV\u4ed6
aV\u7a0b
aV\u561b
aV\u95e8
aV\u5f20
aV\u4fe1
aV\u8bd5
aV\u51fa
aV\u7ea2
aV\u611f
aV\u6bd4
aV\u81ea
aV\u798f
aV\u5199
aV\u9ad8
aV\u7136
aV\u86cb
aV\u5fc3
aV\u524d
aV\u610f
aV\u8d77
aV\u6570
aV\u7231
aV\u5e94
aV\u8ddf
aV\u54ea
aV\u5c06
aV\u4e60
aV\u672c
aV\u7fa4
aV\u53ea
aV\u65b9
aV\u7b49
aV\u7cd5
aV\u51e0
aV\u679c
aV\u8bba
aV\u627e
aV\u60c5
aV\u65e9
aV\u4e2d
aV\u516c
aV\u4f5c
aV\u4e1a
aV\u63d0
aV\u5b9a
aV\u5ea6
aV\u5403
aV\u65fa
aV\u665a
aV\u4eca
aV\u65e5
aV\u6210
aV\u884c
aV\u521a
aV\u6700
aV\u8bed
aV\u52a8
aV\u8be5
aV\u5077
aV\u5019
aV\u6253
aV\u7814
aV\u4e9b
aV\u73ed
aV\u771f
aV\u522b
aV\u6cfd
aV\u54c7
aV\u628a
aV\u5bb3
aV\u5173
aV\u4e8e
aV\u8003
aV\u50cf
aV\u5594
aV\u76ee
aV\u4e4b
aV\u7ed3
aV\u5b8c
aV\u91cf
aV\u8868
aV\u53cb
aV\u9762
aV\u7f8e
aV\u8bf7
aV\u671f
aV\u53f7
aV\u63a5
aV\u4e3b
aV\u8ba1
aV\u4e09
aV\u5973
aV\u79d1
aV\u52a0
aV\u7f51
aV\u6625
aV\u7801
aV\u6559
aV\u7761
aV\u7740
aV\u4eab
aV\u5176
aV\u4e1c
aV\u9519
aV\u89e3
aV\u6240
aV\u8ba9
aV\u5df2
aV\u95f4
aV\u6b21
aV\u7535
aV\u5565
aV\u8bb0
aV\u7ecf
aV\u5408
aV\u94b1
aV\u62a2
aV\u73ab
aV\u5e72
aV\u8bfe
aV\u6a21
aV\u7470
aV\u5414
aV\u96be
aV\u4f53
aV\u5409
aV\u8bc6
aV\u54e5
aV\u667a
aV\u4e24
aV\u7cfb
aV\u4eb2
aV\u4f46
aV\u5168
aV\u767d
aV\u53c8
aV\u5df1
aV\u6b22
aV\u8fdb
aV\u542c
aV\u5988
aV\u6d41
aV\u636e
aV\u578b
aV\u795e
aV\u76f8
aV\u56fe
aV\u4ee3
aV\u606f
aV\u601d
aV\u5411
aV\u6c42
aV\u5341
aV\u5b57
aV\u5348
aV\u8c01
aV\u5b89
aV\u738b
aV\u79cd
aV\u7a76
aV\u957f
aV\u670b
aV\u5916
aV\u529b
aV\u7ec3
aV\u5148
aV\u624d
aV\u535a
aV\u996d
aV\u5446
aV\u63a8
aV\u61c2
aV\u641e
aV\u8f83
aV\u4e66
aV\u804a
aV\u8bfb
aV\u8f66
aV\u4ece
aV\u9662
aV\u62b1
aV\u4e70
aV\u5e8f
aV\u5979
aV\u5149
aV\u5389
aV\u8005
aV\u7279
aV\u59cb
aV\u5316
aV\u9700
aV\u544a
aV\u57fa
aV\u56e0
aV\u8a00
aV\u8f6c
aV\u6536
aV\u6d3b
aV\u529e
aV\u8bb2
aV\u91cd
aV\u8d8a
aV\u89c1
aV\u66f4
aV\u56fd
aV\u5934
aV\u6bd5
aV\u6d4b
aV\u6280
aV\u5f53
aV\u590d
aV\u6ce8
aV\u7b2c
aV\u8fb9
aV\u4f4d
aV\u672f
aV\u6c34
aV\u6df1
aV\u7c7b
aV\u6162
aV\u4e13
aV\u633a
aV\u901f
aV\u6bcf
aV\u603b
aV\u5e2e
aV\u5730
aV\u559c
aV\u6b63
aV\u6109
aV\u5b9d
aV\u6e90
aV\u653e
aV\u574f
aV\u4e07
aV\u6e05
aV\u9ed1
aV\u800c
aV\u7edc
aV\u5c71
aV\u5185
aV\u6821
aV\u6216
aV\u8d70
aV\u540d
aV\u9a8c
aV\u773c
aV\u573a
aV\u9891
aV\u5e26
aV\u6708
aV\u5404
aV\u5e73
aV\u5907
aV\u7248
aV\u8282
aV\u5355
aV\u7a7a
aV\u671b
aV\u4fbf
aV\u8eab
aV\u5757
aV\u5144
aV\u8fce
aV\u539f
aV\u8ba4
aV\u556a
aV\u7269
aV\u5047
aV\u563f
aV\u5229
aV\u7bc7
aV\u6c14
aV\u51c6
aV\u521d
aV\u4e8c
aV\u6807
aV\u7537
aV\u8bc1
aV\u5978
aV\u7ea6
aV\u6362
aV\u901a
aV\u54ed
aV\u58eb
aV\u8c03
aV\u8d44
aV\u4f17
aV\u6d17
aV\u5a46
aV\u9f13
aV\u529f
aV\u89c6
aV\u5e7f
aV\u7238
aV\u5468
aV\u5efa
aV\u5e38
aV\u820d
aV\u638c
aV\u68a6
aV\u56db
aV\u822c
aV\u97f3
aV\u5165
aV\u91d1
aV\u83dc
aV\u767e
aV\u53eb
aV\u6761
aV\u7247
aV\u5802
aV\u6167
aV\u9009
aV\u7ebf
aV\u5bbf
aV\u5f0f
aV\u5e78
aV\u7f9e
aV\u6b7b
aV\u670d
aV\u897f
aV\u5dee
aV\u4ef6
aV\u4fca
aV\u5f55
aV\u6d88
aV\u62dc
aV\u7167
aV\u5ba4
aV\u98ce
aV\u987a
aV\u62e5
aV\u8fd1
aV\u67b6
aV\u5177
aV\u786e
aV\u606d
aV\u88ab
aV\u90e8
aV\u52a9
aV\u53d6
aV\u8f93
aV\u4efd
aV\u98de
aV\u975e
aV\u7709
aV\u8350
aV\u60a8
aV\u623f
aV\u6b65
aV\u53f8
aV\u966a
aV\u7ae0
aV\u683c
aV\u8bae
aV\u503c
aV\u7edf
aV\u4f7f
aV\u654f
aV\u62a5
aV\u8fd0
aV\u9633
aV\u6b64
aV\u5b83
aV\u76b1
aV\u6d77
aV\u5e93
aV\u5361
aV\u8205
aV\u80af
aV\u7ba1
aV\u6982
aV\u5eb7
aV\u59b9
aV\u5f85
aV\u9ec4
aV\u968f
aV\u5bfc
aV\u5236
aV\u6797
aV\u5b69
aV\u6eda
aV\u5e0c
aV\u6fc0
aV\u7ef4
aV\u9001
aV\u697c
aV\u7ec4
aV\u53d8
aV\u9a6c
aV\u7ea7
aV\u6027
aV\u7aef
aV\u8054
aV\u6784
aV\u59d0
aV\u8bc9
aV\u4f30
aV\u8bad
aV\u5ba2
aV\u82f1
aV\u8baf
aV\u9002
aV\u5947
aV\u5cf0
aV\u7387
aV\u4e4e
aV\u53f0
aV\u8d76
aV\u613f
aV\u52a1
aV\u6001
aV\u8d85
aV\u8def
aV\u5065
aV\u6237
aV\u6539
aV\u8bcd
aV\u68d2
aV\u5634
aV\u5f04
aV\u62ff
aV\u6652
aV\u61a8
aV\u5237
aV\u5a92
aV\u6301
aV\u652f
aV\u4fdd
aV\u53e5
aV\u6f5c
aV\u7968
aV\u64ad
aV\u53e3
aV\u7d27
aV\u6548
aV\u6307
aV\u6574
aV\u6487
aV\u793a
aV\u6731
aV\u4e14
aV\u80e1
aV\u9886
aV\u5357
aV\u7adf
aV\u5496
aV\u8111
aV\u521b
aV\u8d22
aV\u6ee1
aV\u96c6
aV\u6599
aV\u533a
aV\u8c31
aV\u9ebb
aV\u534e
aV\u4e45
aV\u674e
aV\u6389
aV\u5b58
aV\u5e76
aV\u5f1f
aV\u8c61
aV\u70ae
aV\u8d39
aV\u725b
aV\u53ca
aV\u51b3
aV\u5904
aV\u6015
aV\u8d35
aV\u6545
aV\u56e2
aV\u805a
aV\u4f18
aV\u82b1
aV\u5dde
aV\u58f0
aV\u878d
aV\u5207
aV\u5171
aV\u5fd9
aV\u5386
aV\u4e0e
aV\u7eed
aV\u5e95
aV\u6846
aV\u6c5f
aV\u8fde
aV\u51b7
aV\u6bdb
aV\u548b
aV\u5561
aV\u9760
aV\u4faf
aV\u695a
aV\u89c4
aV\u4e94
aV\u53c2
aV\u914d
aV\u5317
aV\u63e1
aV\u70ed
aV\u5f71
aV\u6025
aV\u680b
aV\u6cb9
aV\u677f
aV\u50b2
aV\u5f81
aV\u51b5
aV\u7403
aV\u793c
aV\u4e49
aV\u91ce
aV\u661f
aV\u4fee
aV\u5bb9
aV\u6309
aV\u5ff5
aV\u6cea
aV\u5df4
aV\u6c90
aV\u7701
aV\u8da3
aV\u57df
aV\u9047
aV\u663e
aV\u82e6
aV\u5e02
aV\u4f8b
aV\u4f20
aV\u62e9
aV\u6790
aV\u8bb8
aV\u53cd
aV\u8d5e
aV\u666f
aV\u5c55
aV\u86ee
aV\u5c3d
aV\u4f59
aV\u53e6
aV\u4eac
aV\u5fb7
aV\u7565
aV\u54af
aV\u8f7d
aV\u4e91
aV\u5343
aV\u76ca
aV\u6613
aV\u5a5a
aV\u5c42
aV\u5174
aV\u54ce
aV\u8fdc
aV\u68c0
aV\u96ea
aV\u8f6f
aV\u4e03
aV\u7ecd
aV\u62f3
aV\u6c57
aV\u88c5
aV\u4ebf
aV\u5931
aV\u7c89
aV\u8d28
aV\u5c34
aV\u8dd1
aV\u4f3c
aV\u7eb2
aV\u7ec6
aV\u672a
aV\u5fc5
aV\u6628
aV\u6295
aV\u6839
aV\u6fa1
aV\u5c2c
aV\u4ecb
aV\u54c1
aV\u6743
aV\u964d
aV\u7ffb
aV\u9f3b
aV\u77e9
aV\u7eb8
aV\u9669
aV\u9650
aV\u513f
aV\u54d2
aV\u9000
aV\u706b
aV\u80a1
aV\u5c5e
aV\u516b
aV\u6c6a
aV\u5584
aV\u4ea7
aV\u8bbe
aV\u5e86
aV\u8d27
aV\u79cb
aV\u8861
aV\u684c
aV\u8d24
aV\u5475
aV\u5b98
aV\u9664
aV\u5f15
aV\u8df3
aV\u5076
aV\u7cbe
aV\u7fd4
aV\u7206
aV\u4e1d
aV\u5de7
aV\u5f90
aV\u7855
aV\u50bb
aV\u8272
aV\u868a
aV\u641c
aV\u563b
aV\u5458
aV\u62a0
aV\u591c
aV\u76ae
aV\u77ed
aV\u73af
aV\u4e92
aV\u4e3d
aV\u6562
aV\u586b
aV\u592b
aV\u9635
aV\u9f99
aV\u6653
aV\u5708
aV\u5957
aV\u4f34
aV\u90ae
aV\u57ce
aV\u6bb5
aV\u7237
aV\u7b14
aV\u6597
aV\u8f9b
aV\u9876
aV\u4e9a
aV\u594b
aV\u94fe
aV\u903c
aV\u4eae
aV\u5938
aV\u81f3
aV\u5426
aV\u62c9
aV\u6388
aV\u5269
aV\u547d
aV\u67e5
aV\u8bd1
aV\u589e
aV\u5143
aV\u5218
aV\u9616
aV\u961f
aV\u63a7
aV\u7965
aV\u4e25
aV\u949f
aV\u7f6e
aV\u61d2
aV\u9ed8
aV\u5c45
aV\u5546
aV\u534a
aV\u79ef
aV\u67d0
aV\u6302
aV\u80d6
aV\u514d
aV\u8d1f
aV\u73e0
aV\u4f9d
aV\u54cd
aV\u754c
aV\u5212
aV\u51fd
aV\u7591
aV\u52bf
aV\u675c
aV\u8bc4
aV\u9879
aV\u7626
aV\u5750
aV\u81f4
aV\u5443
aV\u6da8
aV\u6563
aV\u7bb1
aV\u64a4
aV\u7ec8
aV\u80cc
aV\u516d
aV\u8d26
aV\u59d1
aV\u8e66
aV\u5347
aV\u9648
aV\u7d2f
aV\u5fd8
aV\u5c40
aV\u4ef7
aV\u7531
aV\u5c81
aV\u6069
aV\u9884
aV\u7ad9
aV\u575b
aV\u4e34
aV\u62ec
aV\u6ef4
aV\u987b
aV\u7b26
aV\u5012
aV\u57f9
aV\u6742
aV\u70b8
aV\u6cf0
aV\u4e32
aV\u4e5d
aV\u7b7e
aV\u504f
aV\u51cf
aV\u642d
aV\u6e2f
aV\u9e4f
aV\u4f19
aV\u4f9b
aV\u52aa
aV\u7d22
aV\u6885
aV\u6770
aV\u604b
aV\u5e8a
aV\u5356
aV\u5f80
aV\u9505
aV\u8fbe
aV\u8f91
aV\u5457
aV\u64cd
aV\u79c1
aV\u731c
aV\u4f24
aV\u5e05
aV\u4f4f
aV\u4f4e
aV\u7b56
aV\u51dd
aV\u54df
aV\u6768
aV\u817e
aV\u8863
aV\u8c37
aV\u95f2
aV\u806a
aV\u6ce2
aV\u5373
aV\u9b3c
aV\u5439
aV\u5c14
aV\u6682
aV\u65ad
aV\u4e71
aV\u4ec5
aV\u675f
aV\u601c
aV\u62db
aV\u8d5a
aV\u70e7
aV\u9192
aV\u96e8
aV\u94ed
aV\u6863
aV\u753b
aV\u75bc
aV\u5217
aV\u4ed4
aV\u7559
aV\u4e95
aV\u9645
aV\u5bc6
aV\u77ee
aV\u989d
aV\u56f4
aV\u7834
aV\u515a
aV\u9875
aV\u8f7b
aV\u8d23
aV\u786c
aV\u5e03
aV\u7a81
aV\u5a01
aV\u519c
aV\u9999
aV\u622a
aV\u6751
aV\u56f0
aV\u6691
aV\u8865
aV\u6269
aV\u7075
aV\u724c
aV\u8db3
aV\u8fdf
aV\u79fb
aV\u5377
aV\u4e89
aV\u65af
aV\u9738
aV\u666e
aV\u518c
aV\u5ea7
aV\u6848
aV\u964c
aV\u621a
aV\u62c5
aV\u5662
aV\u60af
aV\u534f
aV\u811a
aV\u642c
aV\u9c7c
aV\u9ea6
aV\u4ef0
aV\u66b4
aV\u89c2
aV\u5a36
aV\u533b
aV\u5f62
aV\u53d4
aV\u5766
aV\u4fe9
aV\u6d82
aV\u84dd
aV\u72d7
aV\u63a2
aV\u6d69
aV\u72ec
aV\u9634
aV\u5b87
aV\u62cd
aV\u79f0
aV\u6d2a
aV\u87f9
aV\u542f
aV\u8be6
aV\u5987
aV\u963f
aV\u70d8
aV\u95ed
aV\u7a33
aV\u5145
aV\u80a5
aV\u5740
aV\u4e11
aV\u76d6
aV\u7eaf
aV\u6bcd
aV\u53f2
aV\u6b4c
aV\u5170
aV\u7533
aV\u6e38
aV\u6668
aV\u5609
aV\u5733
aV\u5883
aV\u62d4
aV\u5f6d
aV\u4e22
aV\u7334
aV\u5fd7
aV\u5bc4
aV\u7f16
aV\u8d62
aV\u680f
aV\u501f
aV\u5192
aV\u6df7
aV\u5e01
aV\u9686
aV\u843d
aV\u9020
aV\u6458
aV\u95f9
aV\u8499
aV\u80dc
aV\u4f1f
aV\u6316
aV\u8df5
aV\u626b
aV\u8d75
aV\u7ee9
aV\u7f13
aV\u72b6
aV\u7ee7
aV\u59d3
aV\u632f
aV\u6218
aV\u8303
aV\u6696
aV\u4f5b
aV\u997f
aV\u9694
aV\u8131
aV\u6d59
aV\u8881
aV\u6170
aV\u62df
aV\u523b
aV\u6d45
aV\u4ed8
aV\u6f58
aV\u6f02
aV\u6234
aV\u8d56
aV\u56e7
aV\u8089
aV\u7d20
aV\u8bef
aV\u95fb
aV\u54a6
aV\u7fa1
aV\u4e16
aV\u821e
aV\u5ba3
aV\u590f
aV\u5353
aV\u5b63
aV\u9080
aV\u9e1f
aV\u78b0
aV\u7c73
aV\u83b7
aV\u5200
aV\u5956
aV\u538b
aV\u6d6a
aV\u4e53
aV\u73c2
aV\u8425
aV\u536b
aV\u97ad
aV\u7ec7
aV\u8c6a
aV\u7c97
aV\u8bbf
aV\u4e52
aV\u6dfb
aV\u6c11
aV\u6b3e
aV\u4f11
aV\u79df
aV\u7696
aV\u5219
aV\u9a97
aV\u6c38
aV\u52c7
aV\u66ff
aV\u6392
aV\u4e4f
aV\u9a82
aV\u7a00
aV\u5c04
aV\u8ff9
aV\u711c
aV\u867d
aV\u6293
aV\u559d
aV\u62d3
aV\u91ca
aV\u6155
aV\u74dc
aV\u6865
aV\u65e7
aV\u53f3
aV\u54b1
aV\u6d89
aV\u5bbd
aV\u6c88
aV\u5d29
aV\u5faa
aV\u952e
aV\u5e55
aV\u5de8
aV\u56fa
aV\u8f9e
aV\u60ac
aV\u8fa3
aV\u5360
aV\u7f15
aV\u8f88
aV\u9177
aV\u5224
aV\u5f52
aV\u96f7
aV\u8d31
aV\u5de6
aV\u5fe7
aV\u59e8
aV\u5238
aV\u5c3c
aV\u5339
aV\u6c47
aV\u9a7e
aV\u8fb0
aV\u96f6
aV\u51bb
aV\u51fb
aV\u7a0d
aV\u517b
aV\u6e83
aV\u7acb
aV\u9152
aV\u4e58
aV\u6f6e
aV\u70bc
aV\u8857
aV\u80b2
aV\u732a
aV\u8fed
aV\u609f
aV\u68af
aV\u4f01
aV\u5751
aV\u767b
aV\u76d1
aV\u5ef6
aV\u575a
aV\u6478
aV\u81c2
aV\u89e6
aV\u96c5
aV\u6811
aV\u6cbf
aV\u653b
aV\u9017
aV\u50ac
aV\u89d2
aV\u9759
aV\u76d8
aV\u643a
aV\u51ac
aV\u5385
aV\u8ffd
aV\u62a4
aV\u542b
aV\u5657
aV\u827a
aV\u6620
aV\u65e2
aV\u6676
aV\u9601
aV\u5c1d
aV\u9996
aV\u8212
aV\u64a9
aV\u62bd
aV\u7fbd
aV\u79c0
aV\u5ac2
aV\u5434
aV\u8d3a
aV\u505c
aV\u8d25
aV\u51b2
aV\u7f18
aV\u6b20
aV\u77f3
aV\u55e8
aV\u5f03
aV\u5f02
aV\u6838
aV\u969c
aV\u75db
aV\u5c01
aV\u7f57
aV\u76f2
aV\u5c97
aV\u5a03
aV\u8c8c
aV\u5b59
aV\u719f
aV\u602a
aV\u7845
aV\u8dcc
aV\u8651
aV\u4e61
aV\u54f2
aV\u6cb3
aV\u7a97
aV\u59bb
aV\u5c3e
aV\u5764
aV\u6c49
aV\u7eea
aV\u778e
aV\u9992
aV\u7f29
aV\u5f69
aV\u53f6
aV\u5d14
aV\u9986
aV\u6296
aV\u7763
aV\u6697
aV\u5fbd
aV\u793e
aV\u65c1
aV\u5ffd
aV\u676d
aV\u626f
aV\u987e
aV\u6781
aV\u6258
aV\u60ef
aV\u8d1d
aV\u9aa8
aV\u6b49
aV\u8a89
aV\u6740
aV\u5954
aV\u79bb
aV\u656c
aV\u59ff
aV\u6398
aV\u672b
aV\u59d4
aV\u8106
aV\u5976
aV\u5acc
aV\u5267
aV\u7a77
aV\u6c99
aV\u8dc3
aV\u5821
aV\u90a6
aV\u5bcc
aV\u57d4
aV\u8087
aV\u598d
aV\u9012
aV\u7ca5
aV\u7eb9
aV\u819c
aV\u978b
aV\u52ff
aV\u8033
aV\u73ca
aV\u5c4b
aV\u83ca
aV\u8c6b
aV\u5bfa
aV\u7ae5
aV\u526a
aV\u76d2
aV\u8e6d
aV\u9014
aV\u54a7
aV\u55bd
aV\u4e2b
aV\u5965
aV\u4e56
aV\u60ca
aV\u5bf8
aV\u9644
aV\u5382
aV\u5986
aV\u4f6c
aV\u8c13
aV\u5141
aV\u86e4
aV\u4fea
aV\u5806
aV\u561a
aV\u7f3a
aV\u9605
aV\u5b9c
aV\u53ec
aV\u7eb3
aV\u989c
aV\u4f69
aV\u75af
aV\u6062
aV\u5e9e
aV\u8fa8
aV\u7389
aV\u82cf
aV\u8baa
aV\u526f
aV\u94c1
aV\u56ed
aV\u71ac
aV\u4f26
aV\u532e
aV\u664b
aV\u82f9
aV\u7ade
aV\u4e8f
aV\u54b3
aV\u7840
aV\u7956
aV\u6b62
aV\u67aa
aV\u8349
aV\u5b81
aV\u8bf6
aV\u4fa3
aV\u5ac1
aV\u6127
aV\u5435
aV\u653f
aV\u5e97
aV\u541b
aV\u6551
aV\u827e
aV\u5899
aV\u6ce1
aV\u51f3
aV\u853b
aV\u5c41
aV\u79d8
aV\u64e6
aV\u5706
aV\u5a18
aV\u76db
aV\u70df
aV\u52c9
aV\u6b23
aV\u4ee4
aV\u6000
aV\u5438
aV\u5eb8
aV\u51e1
aV\u6ee4
aV\u5bd2
aV\u6dde
aV\u6c89
aV\u8f74
aV\u73cd
aV\u514b
aV\u53cc
aV\u8f89
aV\u5220
aV\u704c
aV\u8363
aV\u5c3f
aV\u79d2
aV\u8c0a
aV\u758f
aV\u94a5
aV\u5524
aV\u8d34
aV\u8042
aV\u60ed
aV\u997c
aV\u500d
aV\u699c
aV\u62d6
aV\u4f73
aV\u94fa
aV\u84b8
aV\u8058
aV\u5f92
aV\u5baa
aV\u5b55
aV\u52e4
aV\u7efc
aV\u523a
aV\u8c46
aV\u5178
aV\u950b
aV\u708e
aV\u80ae
aV\u5e3d
aV\u8d5b
aV\u74f6
aV\u4e30
aV\u6d32
aV\u5854
aV\u65ed
aV\u900f
aV\u5915
aV\u5bbe
aV\u7ed1
aV\u55f7
aV\u5676
aV\u5323
aV\u5be8
aV\u8ff0
aV\u96fe
aV\u9493
aV\u865a
aV\u9ab7
aV\u5410
aV\u6674
aV\u5413
aV\u98a0
aV\u7529
aV\u903b
aV\u532a
aV\u7a8d
aV\u88c1
aV\u5761
aV\u5c4e
aV\u90d1
aV\u723d
aV\u6dd8
aV\u5c24
aV\u6270
aV\u788c
aV\u6cc4
aV\u5c4f
aV\u9769
aV\u5f79
aV\u8469
aV\u8c05
aV\u9ece
aV\u7838
aV\u794e
aV\u9752
aV\u82df
aV\u9068
aV\u6d01
aV\u9aa5
aV\u62b5
aV\u54d1
aV\u810f
aV\u5b64
aV\u6deb
aV\u655b
aV\u68ee
aV\u8c2c
aV\u6089
aV\u543c
aV\u6bd9
aV\u6572
aV\u547c
aV\u75d2
aV\u907f
aV\u822a
aV\u7af9
aV\u4e01
aV\u5fe0
aV\u53e8
aV\u52fe
aV\u7785
aV\u722c
aV\u5c48
aV\u63cd
aV\u76ef
aV\u7f8a
aV\u60a0
aV\u87ba
aV\u8463
aV\u953b
aV\u8361
aV\u7ef5
aV\u6076
aV\u6b27
aV\u72c2
aV\u6851
aV\u8de8
aV\u6377
aV\u65a5
aV\u804c
aV\u9a70
aV\u8dea
aV\u5c0a
aV\u9699
aV\u5c4a
aV\u85cf
aV\u6e29
aV\u732b
aV\u6c55
aV\u59dc
aV\u906d
aV\u5bb5
aV\u9888
aV\u620f
aV\u8521
aV\u5416
aV\u8c26
aV\u585e
aV\u5bb4
aV\u5a77
aV\u9756
aV\u5ddd
aV\u98df
aV\u8776
aV\u5582
aV\u5319
aV\u80a4
aV\u5fc6
aV\u706f
aV\u4f10
aV\u51af
aV\u80ba
aV\u7981
aV\u5106
aV\u8352
aV\u97f5
aV\u5509
aV\u9488
aV\u901b
aV\u63d2
aV\u8be2
aV\u5473
aV\u62fc
aV\u7816
aV\u519b
aV\u529d
aV\u58c1
aV\u7cd9
aV\u745e
aV\u9f84
aV\u52b2
aV\u5e45
aV\u8eba
aV\u607c
aV\u677e
aV\u558a
aV\u690d
aV\u6311
aV\u9806
aV\u6e23
aV\u6b8b
aV\u540a
aV\u6728
aV\u91c7
aV\u5782
aV\u58a8
aV\u66fe
aV\u9189
aV\u4f8d
aV\u813e
aV\u998d
aV\u7a84
aV\u65e6
aV\u627f
aV\u5ead
aV\u7530
aV\u9ac5
aV\u9707
aV\u826f
aV\u5747
aV\u6c61
aV\u9e6d
aV\u6512
aV\u63a9
aV\u52b3
aV\u65bd
aV\u53c9
aV\u745c
aV\u8f6e
aV\u900a
aV\u9b54
aV\u5cad
aV\u9646
aV\u9547
aV\u817f
aV\u8116
aV\u4e9f
aV\u4fb5
aV\u7a3c
aV\u82d7
aV\u74e3
aV\u5362
aV\u8870
aV\u7eff
aV\u6101
aV\u8986
aV\u679a
aV\u54b8
aV\u9e3f
aV\u51f6
aV\u918b
aV\u9910
aV\u6016
aV\u732e
aV\u6cc9
aV\u51cb
aV\u7262
aV\u67ef
aV\u7eaa
aV\u626d
aV\u8102
aV\u4e08
aV\u6c9f
aV\u6db5
aV\u70b7
aV\u65c5
aV\u81ed
aV\u8017
aV\u84c4
aV\u8759
aV\u60ec
aV\u95fa
aV\u560e
aV\u83ab
aV\u6fb3
aV\u914c
aV\u5bfb
aV\u8584
aV\u7236
aV\u8fc8
aV\u80c3
aV\u4ec7
aV\u6cdb
aV\u6284
aV\u6b8a
aV\u775b
aV\u6c1b
aV\u6e9c
aV\u98a8
aV\u7a3f
aV\u9a76
aV\u6a5f
aV\u9063
aV\u78e8
aV\u73fa
aV\u7a7f
aV\u6602
aV\u958b
aV\u842c
aV\u6d9b
aV\u5520
aV\u5bff
aV\u6717
aV\u5f27
aV\u78be
aV\u89c8
aV\u90ce
aV\u53e4
aV\u836f
aV\u4ef2
aV\u730e
aV\u5e10
aV\u5fd1
aV\u7891
aV\u5f66
aV\u8f86
aV\u6298
aV\u964b
aV\u8457
aV\u62d8
aV\u8bde
aV\u866b
aV\u5e7b
aV\u5c12
aV\u7422
aV\u7b28
aV\u67ab
aV\u4f86
aV\u9636
aV\u57cb
aV\u7f50
aV\u5bd3
aV\u5378
aV\u8482
aV\u7c92
aV\u94a2
aV\u5bc7
aV\u4ec6
aV\u8bc8
aV\u5fd0
aV\u9065
aV\u51e4
aV\u65ec
aV\u8f85
aV\u7126
aV\u6eaf
aV\u8fc5
aV\u54a8
aV\u6735
aV\u5cb8
aV\u72fc
aV\u98d4
aV\u7cb9
aV\u8bd7
aV\u8b6c
aV\u77ff
aV\u8896
aV\u6cae
aV\u6635
aV\u5367
aV\u8fdd
aV\u53fc
aV\u8e22
aV\u629b
aV\u819d
aV\u77a9
aV\u573e
aV\u675e
aV\u5962
aV\u5366
aV\u756a
aV\u701a
aV\u5f39
aV\u80ed
aV\u625b
aV\u60dc
aV\u517d
aV\u5b8b
aV\u659f
aV\u742a
aV\u88ad
aV\u6daf
aV\u5c3a
aV\u6842
aV\u90ed
aV\u4ed9
aV\u53fb
aV\u5211
aV\u7092
aV\u5ba0
aV\u8d2f
aV\u51bc
aV\u8377
aV\u62c6
aV\u5251
aV\u5c65
aV\u9f50
aV\u76fe
aV\u9f8d
aV\u7410
aV\u5395
aV\u5531
aV\u9526
aV\u94bb
aV\u6bc5
aV\u5760
aV\u671d
aV\u821f
aV\u50a8
aV\u64b0
aV\u543b
aV\u68d8
aV\u859b
aV\u871c
aV\u7426
aV\u722a
aV\u66dd
aV\u5ce1
aV\u5466
aV\u707e
aV\u788e
aV\u8d2b
aV\u533f
aV\u67dc
aV\u635f
aV\u5c61
aV\u66f2
aV\u537f
aV\u5824
aV\u82b3
aV\u8fc1
aV\u6746
aV\u814a
aV\u635e
aV\u8b66
aV\u67f1
aV\u997a
aV\u9690
aV\u839e
aV\u8d2d
aV\u6233
aV\u6349
aV\u8273
aV\u8e81
aV\u000a
aV\u502a
aV\u77bb
aV\u4ec1
aV\u5d4c
aV\u5154
aV\u5492
aV\u53a8
aV\u8c2d
aV\u68da
aV\u79e4
aV\u808b
aV\u5a1c
aV\u552e
aV\u6d3e
aV\u98db
aV\u5bdd
aV\u70eb
aV\u5a07
aV\u660f
aV\u64b8
aV\u60e0
aV\u9971
aV\u618b
aV\u6f14
aV\u7518
aV\u7a9d
aV\u9f9f
aV\u78b1
aV\u7eb5
aV\u67cf
aV\u90bb
aV\u9970
aV\u94ae
aV\u6cbe
aV\u64ce
aV\u8fd4
aV\u51d1
aV\u6b67
aV\u80f6
aV\u9887
aV\u5618
aV\u751a
aV\u9a30
aV\u75c5
aV\u874e
aV\u7cdf
aV\u6b66
aV\u51ed
aV\u69fd
aV\u4ea8
aV\u7545
aV\u9057
aV\u6361
aV\u5300
aV\u5783
aV\u962e
aV\u4e3e
aV\u614c
aV\u864e
aV\u6b50
aV\u8d54
aV\u5201
aV\u5996
aV\u800d
aV\u8ca1
aV\u5a31
aV\u683d
aV\u7b5b
aV\u9a71
aV\u660c
aV\u72af
aV\u6cbb
aV\u566c
aV\u9003
aV\u868c
aV\u9119
aV\u539a
aV\u7f1d
aV\u6325
aV\u4e27
aV\u80f8
aV\u7889
aV\u658b
aV\u638f
aV\u7099
aV\u4fa7
aV\u4f88
aV\u7948
aV\u5bdf
aV\u9580
aV\u7682
aV\u9988
aV\u5e1d
aV\u9171
aV\u536f
aV\u8e29
aV\u840c
aV\u6ca7
aV\u5ab3
aV\u54d7
aV\u53d9
aV\u9edb
aV\u7766
aV\u5b97
aV\u9c9c
aV\u54ac
aV\u5f31
aV\u6d3d
aV\u96c0
aV\u5085
aV\u5e06
aV\u7597
aV\u8760
aV\u77eb
aV\u6760
aV\u5b88
aV\u6323
aV\u4ea6
aV\u78ca
aV\u6363
aV\u6279
aV\u6dfc
aV\u888b
aV\u8010
aV\u68cb
aV\u574a
aV\u6d4e
aV\u6050
aV\u84d3
aV\u7f5a
aV\u963b
aV\u566a
aV\u5e84
aV\u731d
aV\u8ba2
aV\u4f25
aV\u73b2
aV\u7941
aV\u6267
aV\u9006
aV\u6593
aV\u5f84
aV\u54c9
aV\u60d1
aV\u6252
aV\u5272
aV\u6f0f
aV\u9896
aV\u949e
aV\u6fa4
aV\u8327
aV\u571f
aV\u764c
aV\u567b
aV\u6367
aV\u6469
aV\u65e8
aV\u8c79
aV\u9897
aV\u971e
aV\u5942
aV\u6454
aV\u6c64
aV\u9e45
aV\u85aa
aV\u8bb6
aV\u9f20
aV\u745f
aV\u5371
aV\u8012
aV\u6495
aV\u739b
aV\u5c1a
aV\u561e
aV\u8822
aV\u52b1
aV\u77b3
aV\u6052
aV\u515c
aV\u5370
aV\u667e
aV\u948a
aV\u4e39
aV\u884d
aV\u6d4f
aV\u6251
aV\u91dc
aV\u96de
aV\u6a61
aV\u6e56
aV\u6591
aV\u5d16
aV\u632a
aV\u592e
aV\u9732
aV\u6b3a
aV\u96c7
aV\u6c60
aV\u6566
aV\u996e
aV\u6b7a
aV\u7586
aV\u4f0d
aV\u7eac
aV\u70c8
aV\u69ce
aV\u5375
aV\u8d8b
aV\u520a
aV\u9632
aV\u4ecd
aV\u975c
aV\u60e9
aV\u5570
aV\u973e
aV\u6d0b
aV\u9a9a
aV\u9e2d
aV\u81e8
aV\u5a7f
aV\u6e20
aV\u8650
aV\u97e9
aV\u718a
aV\u5e2b
aV\u76c6
aV\u803f
aV\u59da
aV\u7bee
aV\u8393
aV\u5e16
aV\u751c
aV\u6328
aV\u623e
aV\u78c5
aV\u8d4c
aV\u6750
aV\u77db
aV\u955c
aV\u5c82
aV\u708a
aV\u6492
aV\u6e21
aV\u4fa0
aV\u5ed6
aV\u8a79
aV\u62fe
a.