((dp1
V\u6000
I349
sV\u6302
I818
sV\u8000
I921
sV\u8c08
I866
sV\u4f0a
I997
sV\u968f
I273
sV\u6297
I922
sV\u6599
I998
sV\u7f20
I1447
sV\u9020
I696
sV\u77a5
I1984
sV\u822c
I434
sV\u6cb3
I419
sV\u6b32
I1705
sV\u4fb5
I1325
sV\u4e34
I402
sV\u7136
I133
sV\u5438
I508
sV\u573a
I207
sV\u5bbd
I1326
sV\u7ebf
I292
sV\u53cd
I435
sV\u724c
I819
sV\u76cf
I1469
sV\u59d1
I1706
sV\u82d7
I1985
sV\u5eb8
I1986
sV\u62e5
I294
sV\u8bdd
I152
sV\u8d5e
I1987
sV\u51e1
I1707
sV\u74e3
I1470
sV\u77e5
I134
sV\u9664
I1708
sV\u60eb
I1327
sV\u7f6a
I999
sV\u63ed
I1988
sV\u626c
I1709
sV\u8870
I1471
sV\u6cf3
I1328
sV\u5176
I314
sV\u95f9
I737
sV\u5478
I1989
sV\u7eff
I697
sV\u6101
I1329
sV\u6382
I1990
sV\u8986
I1472
sV\u9890
I1991
sV\u5f15
I509
sV\u5e94
I436
sV\u679a
I1992
sV\u6cc4
I1993
sV\u5121
I1994
sV\u6ee4
I1630
sV\u5047
I589
sV\u5d29
I1473
sV\u9ca8
I1474
sV\u62ac
I1209
sV\u662f
I9
sV\u8bb2
I554
sV\u7237
I449
sV\u6d1e
I1468
sV\u5fc5
I1105
sV\u7409
I1916
sV\u89c6
I738
sV\u4fca
I867
sV\u5951
I868
sV\u5bd2
I1330
sV\u5f55
I698
sV\u5178
I658
sV\u6559
I555
sV\u4e5f
I52
sV\u827e
I1210
sV\u5d69
I1995
sV\u62ec
I1996
sV\u666f
I220
sV\u6ef4
I629
sV\u51f6
I923
sV\u987b
I1475
sV\u57fa
I1211
sV\u5e7f
I1020
sV\u5dfe
I1476
sV\u6f2a
I1998
sV\u6b87
I1212
sV\u6c89
I287
sV\u4e0a
I25
sV\u540e
I65
sV\u9891
I1021
sV\u9910
I1106
sV\u8682
I1751
sV\u5e95
I266
sV\u7ed8
I1712
sV\u8499
I924
sV\u6518
I1999
sV\u5ca9
I1478
sV\u82ad
I1332
sV\u67af
I869
sV\u80dc
I659
sV\u6930
I2000
sV\u8db3
I925
sV\u4f34
I1107
sV\u75d2
I2001
sV\u79bb
I80
sV\u7b3c
I1000
sV\u7fbf
I1713
sV\u5c3e
I1001
sV\u80c1
I1333
sV\u6846
I1479
sV\u6cc9
I1334
sV\u51cb
I1480
sV\u7ed5
I420
sV\u665a
I390
sV\u8fdf
I2002
sV\u7262
I1362
sV\u62ed
I2003
sV\u8df3
I278
sV\u53f7
I403
sV\u5076
I1482
sV\u5578
I699
sV\u79fb
I870
sV\u5fff
I2004
sV\u8001
I279
sV\u8180
I871
sV\u8282
I350
sV\u6717
I1752
sV\u6d88
I590
sV\u538c
I1716
sV\u8096
I2005
sV\u4f1f
I2006
sV\u51a0
I1717
sV\u9523
I1718
sV\u612b
I2007
sV\u7eaa
I660
sV\u63ac
I2008
sV\u672f
I591
sV\u5439
I351
sV\u7a3d
I2009
sV\u7cbe
I1213
sV\u81c0
I2010
sV\u8543
I1719
sV\u6b47
I1335
sV\u6c49
I700
sV\u73cd
I926
sV\u514b
I668
sV\u4eca
I773
sV\u524d
I107
sV\u53cc
I304
sV\u574f
I450
sV\u54ce
I362
sV\u59d0
I1214
sV\u5e55
I774
sV\u7fd4
I1108
sV\u80d6
I1720
sV\u51e0
I197
sV\u5de8
I820
sV\u7eea
I527
sV\u626d
I1215
sV\u676f
I653
sV\u5377
I1109
sV\u56fa
I1483
sV\u5bfc
I1002
sV\u9f7f
I1721
sV\u8102
I2012
sV\u8404
I2013
sV\u8f89
I2014
sV\u518d
I40
sV\u548f
I1722
sV\u7802
I2015
sV\u5c14
I1110
sV\u6458
I1723
sV\u90ae
I2016
sV\u6c9f
I1337
sV\u4f1e
I592
sV\u5220
I2017
sV\u56a3
I1003
sV\u7b26
I1338
sV\u62ab
I1724
sV\u5fbd
I2347
sV\u4eb2
I339
sV\u6c34
I139
sV\u6240
I211
sV\u65c5
I821
sV\u6444
I2018
sV\u4e48
I32
sV\u52cb
I701
sV\u91cd
I180
sV\u704c
I1484
sV\u7ed3
I344
sV\u5b66
I315
sV\u9e3d
I1512
sV\u8bf1
I702
sV\u9012
I1485
sV\u57f9
I2019
sV\u6301
I556
sV\u6280
I1216
sV\u6807
I1111
sV\u73ed
I1386
sV\u8d8a
I167
sV\u778e
I1005
sV\u7b11
I38
sV\u5992
I2020
sV\u52a0
I437
sV\u5ba6
I2021
sV\u7f29
I1486
sV\u60ac
I928
sV\u8d35
I1217
sV\u7a3b
I929
sV\u7c3f
I1726
sV\u6643
I661
sV\u61c2
I252
sV\u6545
I253
sV\u8bc6
I1112
sV\u914d
I703
sV\u57ce
I198
sV\u7b51
I2022
sV\u75f9
I1487
sV\u79d2
I1006
sV\u8759
I1727
sV\u6c5f
I510
sV\u8fde
I363
sV\u5361
I776
sV\u72e0
I1218
sV\u7565
I1264
sV\u7f69
I1113
sV\u626b
I1728
sV\u5077
I338
sV\u53f6
I404
sV\u7779
I2023
sV\u76f8
I352
sV\u9a7b
I2024
sV\u95fa
I2025
sV\u597d
I29
sV\u5ffe
I1339
sV\u5a9a
I1729
sV\u4e89
I1007
sV\u68ad
I1008
sV\u738b
I931
sV\u508d
I1730
sV\u7403
I329
sV\u9a91
I1009
sV\u6216
I593
sV\u8718
I2026
sV\u6d9f
I2027
sV\u8e1e
I1731
sV\u52a1
I2028
sV\u62b1
I271
sV\u9022
I2029
sV\u94a5
I1340
sV\u5524
I1114
sV\u83ab
I1115
sV\u9986
I1260
sV\u65af
I1488
sV\u8d34
I1489
sV\u51b7
I353
sV\u5236
I1010
sV\u7738
I1341
sV\u793c
I574
sV\u5f8a
I1842
sV\u64c5
I2030
sV\u53cb
I474
sV\u714c
I2031
sV\u5b50
I109
sV\u7cd5
I1732
sV\u6bdb
I511
sV\u73bb
I1011
sV\u8ddf
I97
sV\u5360
I1491
sV\u54e5
I778
sV\u5564
I1733
sV\u60ed
I2033
sV\u6c13
I2034
sV\u6d74
I1342
sV\u7f15
I2035
sV\u5bfb
I421
sV\u997c
I2036
sV\u6405
I1220
sV\u8584
I1012
sV\u4e09
I212
sV\u8f88
I1221
sV\u900d
I1492
sV\u518c
I2037
sV\u550f
I1493
sV\u568e
I1734
sV\u5f13
I1117
sV\u6296
I1118
sV\u699c
I1735
sV\u8d1f
I1494
sV\u5723
I1222
sV\u7425
I1736
sV\u5927
I87
sV\u832b
I1343
sV\u652f
I872
sV\u6a31
I2038
sV\u8bb0
I75
sV\u8db4
I1737
sV\u72b6
I557
sV\u6241
I2039
sV\u6743
I1738
sV\u6bbf
I2277
sV\u4e49
I662
sV\u8fc8
I663
sV\u74f6
I601
sV\u904d
I230
sV\u91cc
I37
sV\u754f
I2040
sV\u76ce
I2041
sV\u5f53
I143
sV\u53a2
I1711
sV\u5c55
I1119
sV\u62d6
I1496
sV\u7261
I2042
sV\u53e0
I1223
sV\u7763
I2043
sV\u836b
I2044
sV\u86ee
I1224
sV\u6a71
I1497
sV\u4f73
I1120
sV\u9177
I1225
sV\u94fa
I1739
sV\u987d
I2045
sV\u8702
I1344
sV\u6989
I2046
sV\u6808
I1345
sV\u82ac
I1498
sV\u9893
I1834
sV\u6697
I558
sV\u4f9d
I280
sV\u4e1c
I354
sV\u90a3
I26
sV\u5224
I1740
sV\u5ea7
I710
sV\u67ad
I2048
sV\u6bb5
I779
sV\u9038
I1013
sV\u533a
I1499
sV\u7fbd
I822
sV\u793e
I1500
sV\u65c1
I364
sV\u6742
I1014
sV\u5237
I932
sV\u4ec7
I1501
sV\u6d46
I2049
sV\u89c9
I155
sV\u6848
I1347
sV\u964c
I1922
sV\u5f52
I1502
sV\u6cdb
I2051
sV\u8fdd
I1129
sV\u9762
I108
sV\u53e5
I296
sV\u7ee7
I365
sV\u79e9
I1348
sV\u7897
I1450
sV\u62ef
I1349
sV\u816e
I2052
sV\u6df1
I288
sV\u6c70
I1741
sV\u8bf5
I2053
sV\u96f7
I1226
sV\u7cfb
I823
sV\u5ffd
I933
sV\u5e7c
I2054
sV\u8003
I824
sV\u8782
I2055
sV\u6284
I1742
sV\u4e07
I739
sV\u5f92
I1504
sV\u6e9c
I1015
sV\u6a1f
I1743
sV\u62f1
I1227
sV\u5929
I23
sV\u58a8
I1016
sV\u77f3
I810
sV\u789f
I2056
sV\u9ebc
I367
sV\u7a3f
I2058
sV\u64c0
I2059
sV\u8043
I2060
sV\u91ce
I594
sV\u5561
I780
sV\u77e2
I2061
sV\u5de6
I491
sV\u846b
I1744
sV\u626f
I771
sV\u6cf0
I2063
sV\u9677
I825
sV\u7c7b
I1505
sV\u5320
I1619
sV\u7a7f
I305
sV\u6500
I2066
sV\u8304
I2067
sV\u7b14
I355
sV\u6797
I254
sV\u5b5d
I1261
sV\u96cf
I1746
sV\u672c
I528
sV\u6d32
I2068
sV\u7436
I1506
sV\u70b9
I64
sV\u523a
I1229
sV\u9ebd
I1747
sV\u5bbf
I1748
sV\u62c5
I873
sV\u8fc7
I21
sV\u8c46
I1507
sV\u504e
I1749
sV\u59d3
I1508
sV\u9b54
I378
sV\u5238
I1750
sV\u4f5c
I113
sV\u9662
I704
sV\u5fe7
I934
sV\u7968
I781
sV\u5a6a
I2069
sV\u8d70
I46
sV\u9178
I1121
sV\u727a
I2070
sV\u5f7c
I874
sV\u987e
I1230
sV\u6401
I740
sV\u6682
I1477
sV\u950b
I1509
sV\u5c11
I316
sV\u8717
I1715
sV\u6d1b
I1753
sV\u629a
I1510
sV\u8f9c
I2071
sV\u5f27
I1511
sV\u99a8
I2072
sV\u80ae
I2073
sV\u8c31
I1754
sV\u8eb2
I775
sV\u7737
I1350
sV\u5e3d
I927
sV\u78be
I1513
sV\u6f47
I1017
sV\u964d
I741
sV\u534f
I1514
sV\u90ce
I1018
sV\u5c51
I2074
sV\u4e5d
I1019
sV\u8fdc
I76
sV\u56e2
I2075
sV\u5265
I1351
sV\u53e4
I306
sV\u836f
I782
sV\u8bf4
I14
sV\u94f6
I826
sV\u5e7d
I742
sV\u7ffc
I743
sV\u6781
I705
sV\u6f06
I2076
sV\u540c
I475
sV\u730e
I1352
sV\u6218
I307
sV\u4e9b
I267
sV\u811a
I405
sV\u8c1c
I2077
sV\u575b
I1515
sV\u51a5
I1755
sV\u5f26
I340
sV\u7ba9
I2078
sV\u592a
I57
sV\u65ad
I308
sV\u642c
I1756
sV\u80af
I1231
sV\u4e30
I2079
sV\u80b2
I1757
sV\u7238
I529
sV\u9ebb
I330
sV\u5c3c
I1516
sV\u9f13
I1353
sV\u4f46
I268
sV\u8bc9
I935
sV\u50cf
I66
sV\u534e
I1232
sV\u5fd1
I2080
sV\u5854
I1233
sV\u6756
I1758
sV\u6258
I1759
sV\u8ddd
I559
sV\u7891
I1331
sV\u71e5
I2081
sV\u6f66
I1517
sV\u846c
I2082
sV\u60ef
I476
sV\u636e
I1518
sV\u4e70
I630
sV\u74f7
I1354
sV\u53f9
I783
sV\u9c7c
I422
sV\u6084
I595
sV\u548c
I215
sV\u900f
I274
sV\u68c2
I1760
sV\u5915
I744
sV\u6298
I596
sV\u4e1b
I2083
sV\u8d1d
I1122
sV\u5c27
I875
sV\u9aa8
I2084
sV\u602f
I1355
sV\u6f31
I1761
sV\u6db2
I2085
sV\u5339
I2086
sV\u6c47
I2087
sV\u6b49
I1234
sV\u964b
I2088
sV\u504f
I423
sV\u8457
I153
sV\u8bde
I2089
sV\u7761
I216
sV\u56e0
I226
sV\u5165
I317
sV\u70e4
I2090
sV\u5b69
I706
sV\u866b
I1356
sV\u84ec
I2091
sV\u606f
I597
sV\u8c6a
I1762
sV\u4ef0
I707
sV\u72f8
I1763
sV\u5e7b
I876
sV\u51fa
I58
sV\u8681
I1764
sV\u6700
I114
sV\u8e2a
I1519
sV\u8a89
I2092
sV\u978b
I952
sV\u718f
I1766
sV\u6597
I406
sV\u7fd8
I1520
sV\u8299
I1521
sV\u8f9b
I1357
sV\u7720
I1023
sV\u5e26
I247
sV\u7b28
I1024
sV\u67ab
I1767
sV\u582a
I1522
sV\u64ad
I1025
sV\u55b7
I1523
sV\u5636
I1524
sV\u72b9
I1026
sV\u503a
I2094
sV\u7cbd
I877
sV\u6740
I424
sV\u60c5
I59
sV\u6dc7
I530
sV\u57cb
I827
sV\u54cd
I936
sV\u754c
I176
sV\u91cf
I784
sV\u9ed1
I227
sV\u7f50
I1801
sV\u58d5
I1525
sV\u5954
I708
sV\u65d7
I2096
sV\u6656
I2097
sV\u62d9
I2098
sV\u8fdb
I407
sV\u69df
I2099
sV\u5760
I1247
sV\u53e3
I77
sV\u5462
I531
sV\u5de7
I1123
sV\u5ae9
I1768
sV\u656c
I828
sV\u626e
I1145
sV\u68f5
I1527
sV\u95f7
I1027
sV\u7ffb
I438
sV\u59ff
I878
sV\u9a7e
I2100
sV\u70c1
I1601
sV\u8303
I2101
sV\u8005
I829
sV\u4e86
I8
sV\u770b
I33
sV\u540d
I366
sV\u5f90
I1529
sV\u5815
I1769
sV\u6696
I709
sV\u809a
I1770
sV\u97a0
I1235
sV\u94a2
I1124
sV\u5bc7
I2102
sV\u7d27
I231
sV\u7ea6
I560
sV\u672b
I1236
sV\u642d
I1771
sV\u8e31
I2103
sV\u5389
I2402
sV\u7537
I228
sV\u96b6
I1358
sV\u5239
I1885
sV\u9f3b
I1359
sV\u5c3d
I451
sV\u9977
I1530
sV\u82cd
I1603
sV\u59d4
I1531
sV\u4f5b
I1532
sV\u60da
I1772
sV\u50e7
I2105
sV\u9065
I1028
sV\u51e4
I2106
sV\u4e71
I532
sV\u8ff0
I1360
sV\u96f6
I1029
sV\u7279
I830
sV\u53f8
I1773
sV\u5f7b
I937
sV\u96fe
I332
sV\u997f
I2107
sV\u8981
I12
sV\u8106
I664
sV\u7b8d
I2108
sV\u5e8f
I561
sV\u5d0e
I1774
sV\u9010
I1533
sV\u9493
I1775
sV\u9614
I1534
sV\u4f1a
I18
sV\u865a
I1481
sV\u88ab
I94
sV\u8bad
I1535
sV\u8eaf
I1536
sV\u5189
I1776
sV\u9ab7
I2109
sV\u5c38
I1777
sV\u50bb
I570
sV\u5f3a
I745
sV\u89c1
I132
sV\u8840
I452
sV\u8e44
I1361
sV\u82c7
I1851
sV\u85c9
I1237
sV\u7ecf
I146
sV\u91d1
I938
sV\u57d5
I2111
sV\u5654
I1779
sV\u655e
I1780
sV\u9e64
I2112
sV\u5468
I67
sV\u8bed
I408
sV\u6d6e
I1238
sV\u6070
I1363
sV\u6674
I831
sV\u5976
I843
sV\u53fd
I1537
sV\u8c03
I391
sV\u5999
I1030
sV\u5413
I2114
sV\u9694
I512
sV\u829c
I2115
sV\u661f
I281
sV\u98a0
I1538
sV\u5ba2
I379
sV\u5f25
I1031
sV\u9970
I2116
sV\u7529
I939
sV\u74a8
I2117
sV\u6e2f
I1364
sV\u8131
I879
sV\u6735
I785
sV\u66b4
I940
sV\u5cb8
I453
sV\u563f
I492
sV\u68c0
I2118
sV\u4ec4
I2119
sV\u8549
I1781
sV\u5acc
I941
sV\u62dc
I786
sV\u7267
I1282
sV\u54e8
I1539
sV\u886b
I1782
sV\u6775
I2120
sV\u66f4
I392
sV\u7a77
I1283
sV\u72fc
I787
sV\u8881
I1783
sV\u6001
I880
sV\u5212
I598
sV\u6c99
I425
sV\u819b
I2122
sV\u4e1a
I1540
sV\u641e
I1125
sV\u7f24
I1541
sV\u5026
I1784
sV\u94a9
I1542
sV\u7528
I56
sV\u7cb9
I1785
sV\u88c1
I2123
sV\u5761
I1543
sV\u8dc3
I1126
sV\u4ec5
I1544
sV\u5eb7
I1786
sV\u84c9
I1787
sV\u6548
I1545
sV\u59cb
I174
sV\u96d5
I832
sV\u8bd7
I513
sV\u54e9
I1116
sV\u966a
I356
sV\u4fef
I1546
sV\u8170
I665
sV\u8272
I163
sV\u8774
I1127
sV\u7bf7
I1788
sV\u9876
I746
sV\u51fb
I666
sV\u77ff
I2125
sV\u94e9
I2124
sV\u6e05
I269
sV\u6307
I368
sV\u7a0d
I1789
sV\u5b8c
I289
sV\u5f0f
I788
sV\u8bc5
I2165
sV\u4e9a
I1547
sV\u671f
I455
sV\u649e
I881
sV\u5821
I357
sV\u9e25
I1548
sV\u7fa4
I1128
sV\u4f2f
I1790
sV\u6cae
I1791
sV\u91c9
I2126
sV\u6635
I2127
sV\u723d
I2128
sV\u4e45
I309
sV\u594b
I1365
sV\u5bcc
I2129
sV\u52d2
I1549
sV\u9655
I2130
sV\u6dd8
I1792
sV\u6eda
I943
sV\u83dc
I1550
sV\u675f
I1551
sV\u70e6
I318
sV\u95e8
I275
sV\u96ea
I651
sV\u8bec
I2131
sV\u8f6f
I1552
sV\u773a
I1714
sV\u67f4
I1130
sV\u58f6
I1131
sV\u517b
I1553
sV\u5efa
I2132
sV\u8a00
I789
sV\u6e83
I944
sV\u8d85
I599
sV\u8700
I2133
sV\u5112
I2134
sV\u4e18
I1239
sV\u629b
I1240
sV\u601c
I2135
sV\u7ba1
I426
sV\u69ad
I1793
sV\u83b1
I1794
sV\u5e38
I514
sV\u903c
I1033
sV\u54bf
I1366
sV\u573e
I2137
sV\u6bc1
I730
sV\u6346
I1554
sV\u7acb
I882
sV\u854a
I2138
sV\u79cd
I168
sV\u584c
I2139
sV\u53d1
I181
sV\u9152
I515
sV\u75d5
I945
sV\u8fd9
I20
sV\u4e58
I1241
sV\u62db
I748
sV\u8d5a
I2140
sV\u7ee3
I1555
sV\u5de5
I1795
sV\u70e7
I380
sV\u5668
I667
sV\u756a
I2141
sV\u886c
I2142
sV\u8f6e
I625
sV\u6270
I1132
sV\u5e78
I632
sV\u6a80
I2143
sV\u4e03
I834
sV\u6982
I1556
sV\u6709
I10
sV\u7a0b
I2144
sV\u590d
I835
sV\u788c
I2145
sV\u5c0f
I88
sV\u7f8e
I100
sV\u9192
I297
sV\u4f9b
I2146
sV\u9e23
I1133
sV\u9ca4
I2147
sV\u5bb6
I172
sV\u5f39
I270
sV\u7eb8
I562
sV\u523b
I600
sV\u70bc
I1710
sV\u4e43
I2148
sV\u89c2
I749
sV\u6d45
I1034
sV\u5ef7
I1796
sV\u8749
I1367
sV\u5c4f
I1558
sV\u5351
I669
sV\u72d0
I2149
sV\u8857
I341
sV\u4f59
I1368
sV\u4ed8
I1134
sV\u625b
I1242
sV\u60dc
I1135
sV\u7ae0
I1369
sV\u53e6
I946
sV\u96e8
I86
sV\u95ea
I670
sV\u4fee
I2150
sV\u9877
I2151
sV\u5f79
I1797
sV\u517d
I456
sV\u8f83
I563
sV\u6708
I232
sV\u5b8b
I1798
sV\u788d
I947
sV\u5012
I333
sV\u5495
I1559
sV\u4f18
I1370
sV\u7a84
I1463
sV\u7ca5
I1799
sV\u5728
I7
sV\u88ad
I949
sV\u6daf
I1136
sV\u8e2e
I2152
sV\u82b1
I157
sV\u9b3c
I1526
sV\u7f38
I2153
sV\u53bb
I43
sV\u5c3a
I1560
sV\u763e
I1243
sV\u644a
I883
sV\u7554
I1244
sV\u4ed9
I1137
sV\u6beb
I1800
sV\u8def
I217
sV\u82f1
I671
sV\u67f3
I1138
sV\u5792
I2169
sV\u6574
I393
sV\u7a76
I1139
sV\u90fd
I35
sV\u767e
I516
sV\u8c05
I711
sV\u5740
I2155
sV\u780d
I2156
sV\u963f
I2157
sV\u9713
I1245
sV\u5594
I342
sV\u601d
I319
sV\u5ba0
I1140
sV\u54aa
I169
sV\u8d2f
I1561
sV\u4eae
I533
sV\u8231
I1562
sV\u63b0
I2158
sV\u60b2
I457
sV\u5937
I1371
sV\u533b
I2159
sV\u96be
I156
sV\u914b
I2011
sV\u88c2
I1036
sV\u62c6
I884
sV\u7b4b
I1563
sV\u9ece
I1246
sV\u5251
I950
sV\u51cf
I2160
sV\u8e59
I2161
sV\u8fd8
I30
sV\u7ed1
I1564
sV\u7167
I493
sV\u9f50
I2095
sV\u9669
I790
sV\u54ea
I320
sV\u7977
I885
sV\u7435
I1680
sV\u957f
I237
sV\u56fe
I1141
sV\u8d81
I1802
sV\u6f02
I886
sV\u5e0c
I602
sV\u8eac
I1142
sV\u7591
I1372
sV\u5410
I1803
sV\u679d
I951
sV\u7531
I336
sV\u96a7
I2162
sV\u9526
I2163
sV\u732a
I2164
sV\u6234
I887
sV\u7eb7
I564
sV\u59b9
I1143
sV\u7838
I1565
sV\u94bb
I1804
sV\u52bf
I712
sV\u6bc5
I942
sV\u86c7
I1373
sV\u9760
I162
sV\u5fcd
I534
sV\u5450
I1037
sV\u9752
I427
sV\u5254
I2166
sV\u4ed7
I1805
sV\u8d56
I494
sV\u5c60
I2167
sV\u5f62
I343
sV\u5be5
I1806
sV\u5566
I122
sV\u4e66
I466
sV\u8fed
I1248
sV\u60f3
I15
sV\u7ef7
I1566
sV\u6d01
I2168
sV\u8109
I1144
sV\u7792
I2154
sV\u6e17
I2170
sV\u671d
I566
sV\u821f
I2171
sV\u851a
I2172
sV\u9aa4
I1567
sV\u4eac
I1249
sV\u9636
I1807
sV\u8033
I409
sV\u8335
I2173
sV\u5e37
I2174
sV\u5939
I1250
sV\u543b
I888
sV\u6d41
I245
sV\u6843
I1808
sV\u8fc2
I2175
sV\u55f7
I836
sV\u5c4b
I889
sV\u83ca
I1809
sV\u9053
I78
sV\u5355
I164
sV\u5ea6
I394
sV\u845b
I1810
sV\u8bda
I1811
sV\u55e6
I1374
sV\u90e8
I791
sV\u8c6b
I2176
sV\u53ea
I44
sV\u4eec
I55
sV\u5979
I119
sV\u5bfa
I1820
sV\u76fc
I1812
sV\u8d2a
I1038
sV\u8089
I672
sV\u6108
I1813
sV\uff0c
I1
sV\u5b8f
I1814
sV\u5510
I1039
sV\u8f97
I2177
sV\u871c
I603
sV\u7d20
I1146
sV\u7aa5
I2178
sV\u77a7
I2179
sV\u5426
I604
sV\u4ead
I1251
sV\u8baf
I837
sV\u62b5
I1252
sV\u5938
I1568
sV\u773c
I83
sV\u53bf
I2180
sV\u503e
I1147
sV\u5893
I2047
sV\u6446
I890
sV\u6148
I1815
sV\u7ecd
I1816
sV\u54d1
I2181
sV\u810f
I1641
sV\u4fd7
I1569
sV\u88d9
I1253
sV\u66dd
I2182
sV\u675c
I2183
sV\u5ce1
I2184
sV\u7ae5
I517
sV\u5b64
I495
sV\u5466
I325
sV\u5168
I193
sV\u526a
I750
sV\u8f6c
I218
sV\u6bef
I2185
sV\u6570
I673
sV\u81f3
I953
sV\u7978
I1817
sV\u95fb
I792
sV\u7a7a
I92
sV\u56fd
I751
sV\u707e
I2186
sV\u8c01
I73
sV\u796d
I1932
sV\u628a
I147
sV\u5f8c
I1254
sV\u788e
I369
sV\u5411
I256
sV\u4f17
I1040
sV\u679c
I131
sV\u7ea2
I458
sV\u5ba4
I1375
sV\u52aa
I674
sV\u4e2d
I103
sV\u4fac
I2187
sV\u65b0
I675
sV\u8e48
I1376
sV\u753b
I202
sV\u6c41
I2188
sV\u8747
I2189
sV\u9b4f
I1818
sV\u98ce
I51
sV\u76d2
I793
sV\u53d4
I954
sV\u655b
I2190
sV\u67dc
I1819
sV\u635f
I2191
sV\u54e6
I610
sV\u8d6b
I2192
sV\u9ea6
I1022
sV\u5ed3
I1004
sV\u68ee
I794
sV\u66f2
I53
sV\u63f4
I1821
sV\u5f77
I1822
sV\u9879
I1823
sV\u767d
I150
sV\u5c81
I990
sV\u6389
I213
sV\u7791
I2193
sV\u5014
I2194
sV\u641c
I2195
sV\u609f
I1377
sV\u7fa1
I1153
sV\u9e20
I1041
sV\u7d22
I1255
sV\u59a5
I1571
sV\u5824
I1824
sV\u54a7
I1042
sV\u73a9
I838
sV\u8eab
I127
sV\u68af
I1378
sV\u6089
I1043
sV\u82b3
I1572
sV\u5fa1
I2196
sV\u5bb9
I194
sV\u793a
I1148
sV\u543c
I1379
sV\u8fc1
I2197
sV\u6746
I2198
sV\u5c4c
I1825
sV\u9650
I795
sV\u71d5
I1149
sV\u86db
I2199
sV\u695a
I752
sV\u635e
I1044
sV\u5ae3
I2200
sV\u59e5
I1150
sV\u5766
I1826
sV\u53e9
I1827
sV\u8b66
I1573
sV\u6670
I891
sV\u62f3
I676
sV\u6572
I428
sV\u5bf9
I45
sV\u997a
I1828
sV\u547c
I459
sV\u6d82
I1256
sV\u6905
I1257
sV\u6309
I1258
sV\u9690
I535
sV\u7ea0
I1575
sV\u5427
I186
sV\u57a6
I2201
sV\u52a8
I102
sV\u6731
I2202
sV\u6233
I1829
sV\u60b4
I1576
sV\u963b
I892
sV\u4ec0
I84
sV\u6447
I370
sV\u8349
I410
sV\u61ca
I1259
sV\u8e22
I1453
sV\u6c57
I1045
sV\u5de2
I1577
sV\u9965
I1830
sV\u58e4
I2203
sV\u8273
I894
sV\u7b79
I2204
sV\u767b
I2205
sV\u54fc
I677
sV\u707f
I1301
sV\u822a
I1831
sV\u8885
I1151
sV\u6587
I165
sV\u6289
I1578
sV\u5f8b
I895
sV\u798f
I568
sV\u7a0e
I2207
sV\u4e16
I111
sV\u821e
I496
sV\u5f20
I348
sV\u5ba3
I1579
sV\u80da
I2208
sV\u55a7
I2209
sV\u7626
I1152
sV\u52a9
I1833
sV\u5632
I1580
sV\u4e88
I1725
sV\u4ec1
I1581
sV\u6c42
I713
sV\u88c5
I321
sV\u6e32
I2418
sV\u62c9
I460
sV\u804a
I1154
sV\u5750
I896
sV\u6e56
I1309
sV\u5065
I1582
sV\u84dd
I1046
sV\u72e9
I1583
sV\u8feb
I1380
sV\u6770
I62
sV\u5df7
I955
sV\u5e76
I1381
sV\u7af9
I1047
sV\u987a
I1155
sV\u503c
I2393
sV\u51ff
I2210
sV\u4e01
I1835
sV\u5b54
I1104
sV\u590f
I536
sV\u5492
I1382
sV\u6d17
I1836
sV\u671b
I203
sV\u659c
I897
sV\u611f
I125
sV\u9e21
I1584
sV\u5229
I956
sV\u6f2b
I478
sV\u90aa
I1048
sV\u84b2
I1383
sV\u75bc
I1384
sV\u513f
I839
sV\u6fc0
I1837
sV\u6b43
I1585
sV\u89c4
I1838
sV\u60ca
I754
sV\u594f
I518
sV\u5353
I1586
sV\u54d2
I537
sV\u4ed6
I90
sV\u82de
I2211
sV\u5fe0
I1049
sV\u5b63
I605
sV\u7269
I551
sV\u53e8
I1385
sV\u81f4
I1050
sV\u5ef6
I1156
sV\u5bf8
I2212
sV\u547d
I326
sV\u917f
I1157
sV\u52fe
I569
sV\u9000
I755
sV\u7483
I898
sV\u820c
I2213
sV\u5b9d
I1051
sV\u5a1c
I1839
sV\u5e9f
I796
sV\u70ab
I1840
sV\u4f2a
I1587
sV\u722c
I797
sV\u952e
I840
sV\u65b9
I72
sV\u673a
I334
sV\u8bbd
I2214
sV\u6d3e
I1588
sV\u94c3
I335
sV\u5c48
I1589
sV\u63cd
I2215
sV\u4e54
I1590
sV\u72d7
I957
sV\u5458
I1841
sV\u575a
I497
sV\u7edf
I1158
sV\u6362
I479
sV\u67e5
I2216
sV\u8de9
I2217
sV\u70eb
I1591
sV\u53ed
I1061
sV\u76ef
I1592
sV\u5ff5
I158
sV\u5e74
I110
sV\u6478
I1052
sV\u4eff
I1387
sV\u5080
I2218
sV\u5403
I272
sV\u7684
I2
sV\u5a07
I1159
sV\u5986
I777
sV\u7f8a
I1219
sV\u660f
I1053
sV\u8c13
I1388
sV\u81c2
I2219
sV\u4e94
I899
sV\u5217
I1389
sV\u9519
I238
sV\u7a9c
I1844
sV\u9e1f
I1845
sV\u63a2
I1593
sV\u8725
I2220
sV\u7bc6
I2260
sV\u5931
I204
sV\u78b0
I1160
sV\u6539
I634
sV\u84b8
I1846
sV\u53c2
I1161
sV\u96c4
I958
sV\u59c6
I1390
sV\u514d
I1594
sV\u604b
I480
sV\u62cc
I1847
sV\u6bd2
I1595
sV\u4f55
I276
sV\u4ed4
I395
sV\u5978
I2221
sV\u7559
I195
sV\u7b5d
I1228
sV\u5dde
I2222
sV\u60e0
I1848
sV\u8463
I1849
sV\u6765
I19
sV\u6d69
I1596
sV\u6ce8
I606
sV\u706b
I327
sV\u8fea
I2223
sV\u72ec
I461
sV\u95ee
I246
sV\u9971
I1597
sV\u58f0
I151
sV\u7c73
I714
sV\u7ef4
I1598
sV\u6e7f
I1391
sV\u5b87
I1162
sV\u5806
I959
sV\u7c89
I1850
sV\u840e
I1599
sV\u8910
I2224
sV\u6f14
I282
sV\u7518
I1054
sV\u7a9d
I1163
sV\u9f9f
I2225
sV\u80a1
I1164
sV\u8222
I2226
sV\u8d28
I1600
sV\u4e2a
I47
sV\u7eb5
I1055
sV\u7f34
I2227
sV\u8036
I1262
sV\u69bb
I960
sV\u4fbf
I961
sV\u9634
I1263
sV\u90c1
I1528
sV\u6361
I2228
sV\u96c5
I1392
sV\u7bc7
I1602
sV\u62cd
I331
sV\u4ed5
I2229
sV\u53d7
I290
sV\u5565
I930
sV\u90bb
I1778
sV\u5c5e
I607
sV\u80e1
I1265
sV\u7f3a
I900
sV\u5f69
I1165
sV\u6076
I1393
sV\u9001
I715
sV\u9605
I1266
sV\u9886
I1056
sV\u5e8a
I1166
sV\u820d
I571
sV\u638c
I678
sV\u6811
I481
sV\u5317
I1057
sV\u5598
I1167
sV\u5b9c
I2230
sV\u5f1f
I1168
sV\u62a2
I1604
sV\u6625
I756
sV\u62c7
I2110
sV\u6b27
I1605
sV\u68a6
I159
sV\u6eaa
I1267
sV\u6cbe
I2231
sV\u9041
I2232
sV\u51c0
I1058
sV\u5543
I1852
sV\u72c2
I841
sV\u5c49
I2233
sV\u6bcd
I2331
sV\u5eca
I1606
sV\u624d
I128
sV\u64ce
I1394
sV\u6851
I1607
sV\u9e26
I2093
sV\u6d53
I1035
sV\u8fd4
I1853
sV\u5357
I757
sV\u75d8
I1169
sV\u56da
I2234
sV\u51d1
I1608
sV\u6563
I371
sV\u62e2
I1854
sV\u8de8
I758
sV\u516b
I962
sV\u4eea
I1855
sV\u54ee
I1856
sV\u79f0
I1395
sV\u8377
I1609
sV\u6479
I1610
sV\u4f7f
I759
sV\u5200
I381
sV\u5404
I2235
sV\u7b06
I1611
sV\u5e08
I572
sV\u828b
I1857
sV\u800c
I115
sV\u9002
I1397
sV\u6c14
I81
sV\u5316
I372
sV\u5618
I1269
sV\u751a
I2236
sV\u8424
I1059
sV\u8fa9
I1858
sV\u52ab
I1612
sV\u6d2a
I842
sV\u7bb1
I1859
sV\u6e89
I2237
sV\u7eb3
I1170
sV\u5c34
I1860
sV\u8336
I439
sV\u683c
I635
sV\u6f3e
I1861
sV\u75c5
I716
sV\u7444
I1613
sV\u674e
I1171
sV\u8bd1
I2238
sV\u5356
I1396
sV\u7cdf
I1614
sV\u63e1
I679
sV\u7a91
I2239
sV\u6162
I120
sV\u65e5
I221
sV\u6b66
I680
sV\u5f80
I418
sV\u578b
I1765
sV\u6d6a
I345
sV\u51ed
I1862
sV\u7bf1
I1172
sV\u7ef3
I2240
sV\u808c
I2241
sV\u640f
I2242
sV\u6a90
I1173
sV\u4e13
I498
sV\u9017
I1270
sV\u759a
I1863
sV\u989c
I681
sV\u7f9e
I1174
sV\u6321
I1615
sV\u64a4
I2243
sV\u522b
I96
sV\u542f
I1616
sV\u8d9f
I2244
sV\u8865
I1703
sV\u8fbe
I1864
sV\u5341
I636
sV\u7545
I1618
sV\u5bc6
I633
sV\u7ec8
I310
sV\u624b
I27
sV\u9976
I2113
sV\u80cc
I373
sV\u4e53
I1175
sV\u89d2
I322
sV\u9057
I1060
sV\u53d6
I1865
sV\u9759
I205
sV\u76d8
I608
sV\u795d
I1866
sV\u8361
I682
sV\u8be6
I2245
sV\u516d
I963
sV\u5e73
I429
sV\u5783
I2246
sV\u3002
I0
sV\u5c0a
I1271
sV\u660e
I116
sV\u8f93
I1620
sV\u591c
I233
sV\u73ab
I1398
sV\u70ad
I1621
sV\u75af
I609
sV\u4e3e
I844
sV\u8c61
I573
sV\u57c3
I2247
sV\u94c5
I1399
sV\u5a46
I519
sV\u5ec9
I1867
sV\u7236
I964
sV\u614c
I1176
sV\u65cf
I800
sV\u6cd5
I171
sV\u9738
I1868
sV\u6ee9
I637
sV\u8f68
I1622
sV\u53eb
I126
sV\u74e6
I1570
sV\u70ed
I482
sV\u516c
I82
sV\u95ef
I2248
sV\u66f9
I2249
sV\u8bfb
I358
sV\u647a
I2250
sV\u697c
I1272
sV\u4e7e
I1177
sV\u9082
I2251
sV\u5584
I1273
sV\u5907
I539
sV\u5f88
I50
sV\u5996
I1401
sV\u800d
I540
sV\u9798
I1623
sV\u7b1b
I760
sV\u549a
I1869
sV\u5e9e
I1870
sV\u8425
I1402
sV\u65a4
I2252
sV\u6e29
I229
sV\u8fa8
I1274
sV\u732b
I798
sV\u51ac
I639
sV\u552f
I902
sV\u76ae
I799
sV\u5bb0
I2253
sV\u561f
I683
sV\u683d
I2254
sV\u73c0
I1871
sV\u70c2
I1062
sV\u5947
I845
sV\u7cca
I965
sV\u604d
I1872
sV\u654f
I2255
sV\u4f53
I541
sV\u68d2
I717
sV\u85cf
I901
sV\u5659
I2256
sV\u785d
I1624
sV\u83e0
I2257
sV\u85e4
I2258
sV\u7b50
I2032
sV\u6cea
I129
sV\u706d
I2259
sV\u76ee
I462
sV\u9a71
I2261
sV\u5df4
I1404
sV\u8679
I761
sV\u6b7b
I966
sV\u7634
I2262
sV\u5385
I1275
sV\u4e00
I6
sV\u878d
I684
sV\u660c
I2263
sV\u5199
I182
sV\u5c9b
I1625
sV\u63a5
I239
sV\u4ea7
I1626
sV\u54ab
I1873
sV\u6c6a
I1874
sV\u72af
I1405
sV\u8389
I1627
sV\u78b3
I2264
sV\u6536
I346
sV\u6cbb
I1276
sV\u8fbd
I1875
sV\u5440
I967
sV\u82cf
I1876
sV\u8dd1
I382
sV\u6c50
I1277
sV\u8bd5
I616
sV\u76d7
I968
sV\u59fb
I1406
sV\u7adf
I499
sV\u795e
I293
sV\u8868
I183
sV\u77ed
I1278
sV\u566c
I1878
sV\u716e
I1305
sV\u5df1
I214
sV\u58f3
I1408
sV\u9a74
I1879
sV\u8ffd
I396
sV\u9501
I2265
sV\u7480
I2266
sV\u9003
I542
sV\u5782
I1628
sV\u5305
I543
sV\u80ed
I2267
sV\u670d
I1063
sV\u620f
I500
sV\u6813
I2268
sV\u9119
I1279
sV\u539a
I969
sV\u7f1d
I970
sV\u5e9c
I2269
sV\u7ec4
I2270
sV\u8521
I1880
sV\u6325
I1064
sV\u62a4
I903
sV\u4e27
I1280
sV\u68a8
I2271
sV\u542b
I2272
sV\u7fb2
I2273
sV\u4f3d
I2274
sV\u54c0
I904
sV\u5657
I971
sV\u7edc
I1881
sV\u526f
I972
sV\u5cf0
I2275
sV\u65f6
I54
sV\u80f8
I685
sV\u6e7e
I1400
sV\u8f7d
I846
sV\u4eab
I2276
sV\u9500
I1629
sV\u5c06
I144
sV\u638f
I1409
sV\u600e
I98
sV\u521a
I440
sV\u62a5
I847
sV\u6324
I905
sV\u4fa7
I1065
sV\u8c26
I1410
sV\u6a2a
I1066
sV\u73af
I1067
sV\u8138
I173
sV\u4f3c
I718
sV\u8bbf
I2064
sV\u94c1
I544
sV\u71c3
I719
sV\u7948
I1281
sV\u65cb
I463
sV\u63cf
I973
sV\u4e52
I1178
sV\u70d9
I2278
sV\u7edd
I483
sV\u5bdf
I2279
sV\u585e
I1268
sV\u82e5
I553
sV\u5267
I477
sV\u56ed
I720
sV\u7f13
I686
sV\u53ef
I95
sV\u906e
I974
sV\u5e72
I248
sV\u60f9
I1179
sV\u6dfb
I2280
sV\u827a
I1631
sV\u4efd
I575
sV\u7384
I1882
sV\u5988
I298
sV\u6c11
I611
sV\u4e92
I2281
sV\u5496
I801
sV\u5019
I441
sV\u5e1d
I1632
sV\u9171
I1411
sV\u6ca6
I1883
sV\u77ac
I1068
sV\u70ae
I638
sV\u5c31
I16
sV\u5bb4
I2282
sV\u6d3b
I430
sV\u4e3d
I383
sV\u6ecb
I1966
sV\u56f4
I975
sV\u5143
I1180
sV\u5a77
I2121
sV\u634f
I2283
sV\u80ce
I2284
sV\u6bd4
I184
sV\u5757
I848
sV\u5b5f
I2285
sV\u98de
I240
sV\u8461
I2286
sV\u65e0
I79
sV\u5c71
I117
sV\u8e29
I1633
sV\u5973
I257
sV\u632b
I1412
sV\u6881
I2287
sV\u5185
I687
sV\u84e6
I1886
sV\u5b89
I263
sV\u71ac
I1403
sV\u8f91
I1284
sV\u6e10
I464
sV\u8a93
I1413
sV\u6d12
I849
sV\u5218
I1887
sV\u711a
I1888
sV\u76db
I2288
sV\u589f
I1889
sV\u6620
I1414
sV\u6ca7
I1890
sV\u4f26
I63
sV\u8ba9
I48
sV\u892a
I2289
sV\u542c
I91
sV\u745c
I2290
sV\u7834
I411
sV\u83b9
I2291
sV\u6b3e
I1891
sV\u6fe1
I2411
sV\u86cb
I1181
sV\u538b
I833
sV\u8fd1
I412
sV\u4e50
I148
sV\u9edb
I2292
sV\u98df
I1892
sV\u6562
I721
sV\u8f66
I234
sV\u79d1
I1893
sV\u95ed
I520
sV\u9e70
I1415
sV\u8212
I2293
sV\u8776
I802
sV\u4efb
I484
sV\u5582
I1069
sV\u5b97
I1894
sV\u5b09
I2294
sV\u838e
I1895
sV\u4f11
I1634
sV\u6e90
I2295
sV\u5417
I431
sV\u5319
I1416
sV\u9c9c
I906
sV\u5b9e
I384
sV\u8721
I1635
sV\u80a4
I2296
sV\u6c27
I1285
sV\u54ac
I1636
sV\u53ae
I2297
sV\u5f31
I1182
sV\u7a33
I2298
sV\u67b6
I1286
sV\u4e3b
I385
sV\u6cbc
I1896
sV\u8bbe
I1287
sV\u7741
I640
sV\u96c0
I2299
sV\u6cca
I1495
sV\u5145
I976
sV\u5fc6
I170
sV\u7b49
I60
sV\u664b
I2300
sV\u51cc
I1183
sV\u7cdc
I2301
sV\u5bde
I641
sV\u6761
I521
sV\u6263
I2302
sV\u65e2
I2303
sV\u8165
I1417
sV\u766b
I1288
sV\u706f
I397
sV\u53ee
I907
sV\u5f71
I208
sV\u54a9
I1897
sV\u9a73
I1070
sV\u5df2
I89
sV\u6cfc
I1418
sV\u8bfe
I1289
sV\u9700
I264
sV\u818f
I1290
sV\u4e91
I612
sV\u7597
I1898
sV\u9616
I2304
sV\u9f9b
I2305
sV\u901a
I545
sV\u522e
I1071
sV\u7eb1
I2306
sV\u8309
I1637
sV\u5bb3
I465
sV\u5934
I121
sV\u62b9
I762
sV\u8d3c
I1900
sV\u96c1
I1901
sV\u7740
I13
sV\u5144
I1291
sV\u5ac9
I2307
sV\u64cd
I1184
sV\u654c
I576
sV\u624e
I1902
sV\u6ed1
I1419
sV\u6954
I2308
sV\u505a
I283
sV\u9f20
I1832
sV\u8760
I1420
sV\u6e3a
I1638
sV\u8e66
I565
sV\u82bd
I2309
sV\u54ed
I323
sV\u556c
I2310
sV\u51ef
I2311
sV\u5f70
I2312
sV\u65f7
I2313
sV\u6676
I1072
sV\u82f9
I1639
sV\u6cfd
I2314
sV\u9601
I2315
sV\u9005
I2316
sV\u7184
I1640
sV\u5d07
I1292
sV\u5e86
I2317
sV\u5b88
I642
sV\u670b
I577
sV\u988a
I2318
sV\u840d
I2319
sV\u610f
I190
sV\u4e11
I803
sV\u5219
I1421
sV\u5398
I1903
sV\u5c1d
I485
sV\u591f
I196
sV\u6323
I1642
sV\u6025
I1422
sV\u8d27
I1904
sV\u8ba8
I1073
sV\u542d
I1643
sV\u5835
I2320
sV\u501f
I688
sV\u8537
I2321
sV\u8239
I977
sV\u79cb
I454
sV\u5343
I199
sV\u51c4
I1574
sV\u7ec6
I442
sV\u5a49
I1906
sV\u8fd0
I1185
sV\u76d6
I1186
sV\u7259
I1187
sV\u53d8
I149
sV\u795f
I2322
sV\u8363
I1188
sV\u776b
I1074
sV\u72ee
I2323
sV\u7ff0
I2324
sV\u9875
I578
sV\u6577
I1644
sV\u6279
I2325
sV\u8f7b
I104
sV\u6c7d
I1423
sV\u897f
I522
sV\u7981
I1907
sV\u5f85
I284
sV\u5589
I2326
sV\u5408
I249
sV\u888b
I643
sV\u4e8f
I1645
sV\u8010
I1908
sV\u6614
I2327
sV\u7a97
I328
sV\u5916
I209
sV\u5c18
I722
sV\u6e34
I1490
sV\u6b22
I258
sV\u4e24
I359
sV\u65a9
I2328
sV\u672a
I467
sV\u7bad
I1189
sV\u7eaf
I523
sV\u5634
I259
sV\u6c38
I191
sV\u653e
I71
sV\u79c1
I1646
sV\u9b42
I501
sV\u7fc5
I1075
sV\u5e44
I2329
sV\u52c7
I850
sV\u5146
I1647
sV\u5448
I1648
sV\u68cb
I1649
sV\u574a
I2330
sV\u8bcd
I74
sV\u6050
I1293
sV\u8352
I804
sV\u8654
I2332
sV\u5956
I851
sV\u70db
I1076
sV\u7f5a
I1650
sV\u563b
I2333
sV\u76df
I1651
sV\u6860
I1652
sV\u6ce3
I1077
sV\u6b62
I613
sV\u65e9
I689
sV\u58eb
I1294
sV\u876a
I2334
sV\u9a6c
I486
sV\u9eef
I1424
sV\u7d6e
I1909
sV\u7070
I908
sV\u97f5
I2335
sV\u6df9
I1910
sV\u63fd
I2337
sV\u66ff
I1295
sV\u857e
I1911
sV\u5e84
I1296
sV\u5207
I285
sV\u5509
I852
sV\u9488
I1078
sV\u8e0f
I1425
sV\u8111
I443
sV\u7199
I2338
sV\u6392
I909
sV\u8715
I1653
sV\u9996
I614
sV\u901b
I1426
sV\u961f
I978
sV\u8c23
I1079
sV\u4ea4
I579
sV\u6170
I1427
sV\u67aa
I763
sV\u5530
I1912
sV\u6349
I1913
sV\u7433
I1654
sV\u7272
I2348
sV\u8d39
I1655
sV\u6cb8
I2339
sV\u603b
I690
sV\u633d
I979
sV\u5bc2
I644
sV\u9ec4
I241
sV\u7247
I324
sV\u51c6
I468
sV\u54c8
I386
sV\u63d2
I1080
sV\u7a57
I2341
sV\u7ea7
I1346
sV\u6267
I1429
sV\u61e6
I1656
sV\u586b
I2342
sV\u5dee
I469
sV\u5171
I1081
sV\u5473
I242
sV\u53f2
I805
sV\u76f4
I206
sV\u5177
I1905
sV\u62fc
I1297
sV\u9881
I1657
sV\u5f04
I1298
sV\u7387
I980
sV\u9006
I724
sV\u9508
I1658
sV\u8c0e
I1659
sV\u6212
I806
sV\u7b97
I179
sV\u7816
I2343
sV\u519b
I764
sV\u529d
I1914
sV\u731c
I645
sV\u541e
I1915
sV\u8da3
I1660
sV\u4f24
I177
sV\u63a7
I646
sV\u7b2c
I691
sV\u74dc
I1430
sV\u7130
I1899
sV\u6cb9
I807
sV\u4e3a
I34
sV\u62bd
I615
sV\u58c1
I725
sV\u6b4c
I136
sV\u4fcf
I1917
sV\u60d1
I647
sV\u8150
I1431
sV\u85d3
I2344
sV\u6f0f
I1918
sV\u5965
I2345
sV\u535c
I2346
sV\u745e
I1661
sV\u4ee5
I112
sV\u8568
I2336
sV\u5170
I1082
sV\u5272
I910
sV\u8bf7
I243
sV\u6876
I2340
sV\u6d78
I2349
sV\u7801
I1432
sV\u9a82
I1662
sV\u5e05
I1663
sV\u5409
I726
sV\u4f0f
I1664
sV\u8513
I1299
sV\u8292
I1433
sV\u521d
I648
sV\u771f
I135
sV\u949e
I1190
sV\u6821
I853
sV\u8d23
I2350
sV\u4e25
I1434
sV\u8327
I1665
sV\u592b
I911
sV\u5f2f
I727
sV\u51b0
I311
sV\u9635
I981
sV\u571f
I387
sV\u9175
I2351
sV\u4eba
I17
sV\u873f
I1920
sV\u79c0
I1191
sV\u5e45
I1085
sV\u5347
I765
sV\u4f4f
I413
sV\u564c
I2050
sV\u62d2
I2352
sV\u6655
I1300
sV\u67d4
I398
sV\u5b57
I399
sV\u575f
I2353
sV\u8861
I1435
sV\u7fe0
I1923
sV\u60e6
I2354
sV\u6469
I1924
sV\u9a6d
I2355
sV\u9675
I1436
sV\u907f
I2206
sV\u6c79
I1925
sV\u6bd5
I1877
sV\u817b
I1666
sV\u677f
I432
sV\u5b81
I1437
sV\u7a00
I1667
sV\u5c04
I912
sV\u5306
I1302
sV\u6c8f
I1926
sV\u6210
I141
sV\u9897
I502
sV\u9f99
I470
sV\u5e18
I1927
sV\u529b
I145
sV\u949f
I291
sV\u971e
I2356
sV\u8ba1
I2357
sV\u8587
I2358
sV\u4fdd
I1503
sV\u5230
I22
sV\u55b5
I1928
sV\u7434
I250
sV\u8fb9
I99
sV\u6e38
I444
sV\u8d3a
I2360
sV\u603c
I2361
sV\u7ec3
I1083
sV\u5dc5
I1668
sV\u554a
I286
sV\u684c
I1303
sV\u4f4e
I913
sV\u6454
I1929
sV\u5fd9
I728
sV\u51dd
I1669
sV\u505c
I260
sV\u54df
I1930
sV\u975e
I580
sV\u8be1
I2362
sV\u4ee3
I261
sV\u8eba
I1084
sV\u6c64
I1670
sV\u80e7
I1320
sV\u6668
I982
sV\u786c
I524
sV\u8ff9
I766
sV\u607c
I983
sV\u677e
I649
sV\u5e03
I1192
sV\u5982
I69
sV\u5386
I808
sV\u7709
I1671
sV\u558a
I617
sV\u690d
I1672
sV\u6311
I984
sV\u6613
I546
sV\u9e45
I1921
sV\u521b
I1193
sV\u516e
I1407
sV\u541f
I1673
sV\u6b21
I347
sV\u8d25
I692
sV\u6027
I375
sV\u5fae
I124
sV\u9633
I210
sV\u51b2
I192
sV\u7535
I445
sV\u6837
I106
sV\u8bb6
I2363
sV\u9047
I618
sV\u4f20
I313
sV\u804b
I2057
sV\u8fce
I547
sV\u62d0
I1931
sV\u6653
I1674
sV\u9ed8
I154
sV\u725b
I376
sV\u915d
I1438
sV\u745f
I2364
sV\u996d
I1557
sV\u5371
I985
sV\u72f0
I1933
sV\u5575
I1675
sV\u8877
I2365
sV\u7a81
I1086
sV\u5802
I1087
sV\u9187
I2366
sV\u5206
I185
sV\u5708
I503
sV\u6b8b
I809
sV\u888d
I2367
sV\u4e0e
I487
sV\u6291
I1676
sV\u6012
I1677
sV\u6495
I1306
sV\u7f18
I619
sV\u5c1a
I1934
sV\u6b20
I1439
sV\u8fa3
I1440
sV\u8822
I1194
sV\u6728
I581
sV\u5bab
I986
sV\u5e2e
I767
sV\u52b1
I1935
sV\u77b3
I2368
sV\u4f38
I1936
sV\u663e
I1937
sV\u5fc3
I31
sV\u9cc5
I2369
sV\u91c7
I1678
sV\u544a
I693
sV\u68cd
I855
sV\u4e4e
I471
sV\u67d3
I987
sV\u6052
I1088
sV\u7ed9
I105
sV\u53db
I1089
sV\u515c
I1441
sV\u6ce5
I1442
sV\u8d64
I1307
sV\u6768
I914
sV\u72f1
I1679
sV\u5370
I650
sV\u97f3
I140
sV\u55e8
I1443
sV\u80fd
I36
sV\u867e
I1938
sV\u5a01
I811
sV\u7b80
I299
sV\u5f03
I433
sV\u9882
I1745
sV\u5609
I1444
sV\u4e8e
I300
sV\u6211
I3
sV\u8713
I988
sV\u5f98
I1939
sV\u5c9a
I2370
sV\u519c
I1940
sV\u751f
I137
sV\u6a21
I504
sV\u68a2
I2371
sV\u6127
I1941
sV\u82a6
I1445
sV\u7d2f
I400
sV\u7231
I11
sV\u73b0
I160
sV\u50b2
I694
sV\u5435
I567
sV\u4e39
I1681
sV\u5c45
I1308
sV\u884d
I1682
sV\u8d4f
I856
sV\u4ece
I161
sV\u6251
I1942
sV\u63d0
I620
sV\u5957
I1090
sV\u7ad6
I1943
sV\u5fd8
I187
sV\u56de
I41
sV\u6a61
I1944
sV\u9cd6
I2372
sV\u82e6
I488
sV\u53f0
I446
sV\u5475
I1091
sV\u95f4
I142
sV\u6977
I1945
sV\u66fe
I989
sV\u5883
I812
sV\u5f02
I1195
sV\u5b85
I1946
sV\u7687
I1446
sV\u9189
I857
sV\u4e56
I753
sV\u6591
I652
sV\u6410
I1947
sV\u8712
I1948
sV\u5e97
I582
sV\u5d16
I1683
sV\u9999
I235
sV\u529f
I1310
sV\u6da1
I1949
sV\u66a7
I858
sV\u6028
I695
sV\u555c
I2373
sV\u6d4b
I2399
sV\u9732
I1311
sV\u6838
I2374
sV\u663c
I2375
sV\u813e
I1312
sV\u5c40
I1092
sV\u5546
I1950
sV\u51c9
I1951
sV\u534a
I472
sV\u4e4c
I915
sV\u565c
I1032
sV\u715e
I1684
sV\u6de1
I729
sV\u6c60
I1448
sV\u8be5
I188
sV\u6566
I2376
sV\u6068
I768
sV\u7aef
I1313
sV\u996e
I1196
sV\u7470
I1449
sV\u4ef7
I2377
sV\u8d76
I621
sV\u62ff
I401
sV\u817e
I1952
sV\u9a84
I948
sV\u4e8c
I388
sV\u9898
I525
sV\u541b
I2378
sV\u5b9a
I130
sV\u969c
I1953
sV\u6627
I859
sV\u60a8
I2379
sV\u7f2d
I2380
sV\u7eac
I2381
sV\u5531
I255
sV\u8bba
I1954
sV\u673d
I2382
sV\u623f
I1451
sV\u61be
I2383
sV\u9b45
I1197
sV\u8df7
I2384
sV\u5149
I93
sV\u70c8
I1685
sV\u53ca
I622
sV\u4f4d
I583
sV\u6551
I1198
sV\u6355
I1955
sV\u82d4
I1956
sV\u7959
I2385
sV\u98d8
I447
sV\u8863
I1686
sV\u6b65
I312
sV\u9a6f
I2386
sV\u5375
I2387
sV\u6628
I2359
sV\u8bfa
I860
sV\u66fc
I2388
sV\u627f
I414
sV\u9c81
I1336
sV\u5e02
I916
sV\u7406
I623
sV\u7089
I2389
sV\u6491
I584
sV\u6295
I1199
sV\u5f97
I68
sV\u5c16
I769
sV\u5899
I585
sV\u7a1a
I1687
sV\u971c
I1452
sV\u539f
I301
sV\u6ca1
I28
sV\u4e22
I893
sV\u80a9
I770
sV\u622a
I991
sV\u5ead
I1454
sV\u94b1
I917
sV\u7530
I861
sV\u51b3
I251
sV\u9632
I1093
sV\u7334
I1957
sV\u5434
I1958
sV\u79c3
I2390
sV\u9ac5
I2391
sV\u5446
I1200
sV\u5148
I473
sV\u6dcb
I415
sV\u524a
I1959
sV\u4ecd
I1314
sV\u6bcf
I377
sV\u6652
I862
sV\u5fd7
I813
sV\u98d9
I1960
sV\u75db
I302
sV\u5a5a
I1688
sV\u6ce1
I654
sV\u89e3
I295
sV\u6b64
I586
sV\u60e9
I2392
sV\u5deb
I1689
sV\u7eed
I262
sV\u786e
I1843
sV\u5570
I1315
sV\u9672
I2394
sV\u5374
I61
sV\u8ff7
I548
sV\u5c01
I624
sV\u8bc1
I747
sV\u9707
I1316
sV\u5486
I918
sV\u9009
I731
sV\u6d0b
I1455
sV\u4e0d
I5
sV\u826f
I2062
sV\u5c96
I1961
sV\u551b
I655
sV\u9a9a
I1317
sV\u6ea2
I1094
sV\u8ba4
I489
sV\u5e2d
I2395
sV\u7235
I2396
sV\u6839
I732
sV\u653b
I814
sV\u5c41
I2397
sV\u754a
I1962
sV\u5bc4
I1456
sV\u5747
I2398
sV\u8d4b
I1617
sV\u884c
I277
sV\u9e7f
I1997
sV\u7f57
I1690
sV\u7cd6
I549
sV\u79d8
I505
sV\u6c61
I1095
sV\u64e6
I1096
sV\u6069
I919
sV\u7efc
I2065
sV\u5173
I222
sV\u76f2
I1691
sV\u7275
I223
sV\u867d
I863
sV\u4f2b
I2401
sV\u5f81
I1318
sV\u7a83
I1097
sV\u7985
I1457
sV\u5706
I1098
sV\u7389
I2400
sV\u4e8b
I101
sV\u6293
I1458
sV\u7f16
I178
sV\u5b99
I1201
sV\u5a18
I815
sV\u591a
I49
sV\u559d
I236
sV\u82db
I2403
sV\u6fa1
I2404
sV\u6726
I1319
sV\u63a9
I1459
sV\u5c2c
I1963
sV\u52b3
I1964
sV\u7532
I1099
sV\u51b5
I2405
sV\u575e
I2406
sV\u65bd
I1965
sV\u54c7
I416
sV\u7248
I1692
sV\u4ecb
I1884
sV\u6eb6
I2407
sV\u87d1
I2408
sV\u62d3
I1967
sV\u8054
I2409
sV\u7cd7
I2410
sV\u56db
I526
sV\u545c
I1693
sV\u70df
I303
sV\u4fe1
I374
sV\u4e60
I337
sV\u8d62
I1202
sV\u60e7
I1304
sV\u9884
I733
sV\u4e0b
I39
sV\u8c8c
I1321
sV\u6094
I734
sV\u561b
I1460
sV\u6f6e
I631
sV\u901f
I550
sV\u8427
I1203
sV\u8270
I1461
sV\u75b2
I1322
sV\u8c37
I2412
sV\u853d
I1694
sV\u803f
I2413
sV\u70ca
I1979
sV\u72c8
I1462
sV\u4e4b
I175
sV\u91ca
I656
sV\u6dcc
I1969
sV\u6751
I735
sV\u6253
I138
sV\u6155
I1695
sV\u9ad8
I360
sV\u94dc
I1204
sV\u88e4
I2414
sV\u6467
I993
sV\u62e8
I1919
sV\u81ea
I85
sV\u7bee
I1323
sV\u56f0
I1205
sV\u95f2
I1970
sV\u5175
I864
sV\u5f00
I24
sV\u5b83
I189
sV\u5904
I920
sV\u5587
I2415
sV\u8393
I2416
sV\u5e16
I1971
sV\u9a97
I1972
sV\u751c
I265
sV\u719f
I657
sV\u6f20
I1100
sV\u8c22
I417
sV\u6328
I2417
sV\u602a
I1101
sV\u5730
I70
sV\u4e32
I2136
sV\u6b38
I1464
sV\u5c42
I1206
sV\u9646
I1102
sV\u52c9
I2419
sV\u5348
I994
sV\u8d4c
I2420
sV\u6750
I2421
sV\u8154
I1973
sV\u7ad9
I736
sV\u5b58
I587
sV\u955c
I816
sV\u6ee1
I224
sV\u4f60
I4
sV\u65e7
I389
sV\u62e9
I995
sV\u7ebd
I2422
sV\u5feb
I118
sV\u79ef
I2423
sV\u56f1
I2424
sV\u5269
I538
sV\u53f3
I506
sV\u5192
I1974
sV\u5174
I588
sV\u6df7
I1975
sV\u627e
I200
sV\u5e01
I1696
sV\u54c1
I992
sV\u5c82
I1976
sV\u5507
I772
sV\u708a
I1697
sV\u6d8c
I1698
sV\u54b1
I1977
sV\u6492
I1324
sV\u6015
I219
sV\u6194
I1699
sV\u5b98
I1465
sV\u541d
I2425
sV\u559c
I244
sV\u529e
I507
sV\u6e21
I1207
sV\u4fa0
I1978
sV\u6b23
I865
sV\u4ee4
I1428
sV\u63a8
I1103
sV\u9631
I1208
sV\u77b0
I1700
sV\u5948
I817
sV\u8bb8
I201
sV\u873b
I996
sV\u843d
I123
sV\u65bc
I490
sV\u613f
I448
sV\u7e41
I1701
sV\u6d77
I166
sV\u9547
I1702
sV\u96c6
I1466
sV\u53c8
I225
sV\u90ca
I1968
sV\u8dcc
I626
sV\u67d0
I1980
sV\u7239
I2104
sV\u6055
I2426
sV\u775b
I552
sV\u55dc
I1981
sV\u72de
I1982
sV\u4e61
I627
sV\u6b63
I361
sV\u6ce2
I2427
sV\u6865
I854
sV\u86e6
I2428
sV\u6269
I2429
sV\u5373
I1467
sV\u7075
I628
sV\u8d77
I42
sV\u4ef6
I1983
sV\u8bf8
I2430
sV\u62fe
I2431
sV\u817f
I1704
sV\u7b54
I723
s(lp2
V\u3002
aV\uff0c
aV\u7684
aV\u6211
aV\u4f60
aV\u4e0d
aV\u4e00
aV\u5728
aV\u4e86
aV\u662f
aV\u6709
aV\u7231
aV\u8981
aV\u7740
aV\u8bf4
aV\u60f3
aV\u5c31
aV\u4eba
aV\u4f1a
aV\u6765
aV\u8fd9
aV\u8fc7
aV\u5230
aV\u5929
aV\u5f00
aV\u4e0a
aV\u90a3
aV\u624b
aV\u6ca1
aV\u597d
aV\u8fd8
aV\u5fc3
aV\u4e48
aV\u770b
aV\u4e3a
aV\u90fd
aV\u80fd
aV\u91cc
aV\u7b11
aV\u4e0b
aV\u518d
aV\u56de
aV\u8d77
aV\u53bb
aV\u53ea
aV\u5bf9
aV\u8d70
aV\u4e2a
aV\u8ba9
aV\u591a
aV\u5f88
aV\u98ce
aV\u4e5f
aV\u66f2
aV\u65f6
aV\u4eec
aV\u7528
aV\u592a
aV\u51fa
aV\u60c5
aV\u7b49
aV\u5374
aV\u6770
aV\u4f26
aV\u70b9
aV\u540e
aV\u50cf
aV\u5468
aV\u5f97
aV\u5982
aV\u5730
aV\u653e
aV\u65b9
aV\u8c01
aV\u8bcd
aV\u8bb0
aV\u8fdc
aV\u53e3
aV\u9053
aV\u65e0
aV\u79bb
aV\u6c14
aV\u516c
aV\u773c
aV\u4ec0
aV\u81ea
aV\u96e8
aV\u5927
aV\u5c0f
aV\u5df2
aV\u4ed6
aV\u542c
aV\u7a7a
aV\u5149
aV\u88ab
aV\u53ef
aV\u522b
aV\u8ddf
aV\u600e
aV\u8fb9
aV\u7f8e
aV\u4e8b
aV\u52a8
aV\u4e2d
aV\u8f7b
aV\u7ed9
aV\u6837
aV\u524d
aV\u9762
aV\u5b50
aV\u5e74
aV\u4e16
aV\u4ee5
aV\u4f5c
aV\u6700
aV\u800c
aV\u660e
aV\u5c71
aV\u5feb
aV\u5979
aV\u6162
aV\u5934
aV\u5566
aV\u843d
aV\u5fae
aV\u611f
aV\u53eb
aV\u8eab
aV\u624d
aV\u6cea
aV\u5b9a
aV\u679c
aV\u89c1
aV\u7136
aV\u77e5
aV\u771f
aV\u6b4c
aV\u751f
aV\u6253
aV\u6c34
aV\u97f3
aV\u6210
aV\u95f4
aV\u5f53
aV\u5c06
aV\u529b
aV\u7ecf
aV\u628a
aV\u4e50
aV\u53d8
aV\u767d
aV\u58f0
aV\u8bdd
aV\u8457
aV\u9ed8
aV\u89c9
aV\u96be
aV\u82b1
aV\u5ff5
aV\u68a6
aV\u73b0
aV\u4ece
aV\u9760
aV\u8272
aV\u5355
aV\u6587
aV\u6d77
aV\u8d8a
aV\u79cd
aV\u54aa
aV\u5fc6
aV\u6cd5
aV\u5bb6
aV\u8138
aV\u59cb
aV\u4e4b
aV\u754c
aV\u4f24
aV\u7f16
aV\u7b97
aV\u91cd
aV\u53d1
aV\u5199
aV\u8868
aV\u6bd4
aV\u5206
aV\u5427
aV\u5fd8
aV\u8be5
aV\u5b83
aV\u610f
aV\u6c38
aV\u51b2
aV\u5168
aV\u5bb9
aV\u7559
aV\u591f
aV\u51e0
aV\u57ce
aV\u5343
aV\u627e
aV\u8bb8
aV\u753b
aV\u671b
aV\u5931
aV\u9759
aV\u76f4
aV\u573a
aV\u5f71
aV\u5916
aV\u9633
aV\u6240
aV\u4e09
aV\u6389
aV\u5df1
aV\u548c
aV\u7761
aV\u8def
aV\u8f6c
aV\u6015
aV\u666f
aV\u65e5
aV\u5173
aV\u7275
aV\u6ee1
aV\u53c8
aV\u56e0
aV\u9ed1
aV\u7537
aV\u6e29
aV\u904d
aV\u7d27
aV\u6708
aV\u591c
aV\u8f66
aV\u9999
aV\u559d
aV\u957f
aV\u9519
aV\u63a5
aV\u98de
aV\u9ec4
aV\u5473
aV\u8bf7
aV\u559c
aV\u6d41
aV\u95ee
aV\u5e26
aV\u5e72
aV\u5408
aV\u7434
aV\u51b3
aV\u61c2
aV\u6545
aV\u6797
aV\u5531
aV\u5411
aV\u5973
aV\u6b22
aV\u5634
aV\u505c
aV\u4ee3
aV\u7eed
aV\u5b89
aV\u9700
aV\u751c
aV\u5e95
aV\u4e9b
aV\u4f46
aV\u6e05
aV\u5f39
aV\u62b1
aV\u5403
aV\u968f
aV\u900f
aV\u95e8
aV\u4f55
aV\u884c
aV\u8df3
aV\u8001
aV\u4f9d
aV\u661f
aV\u6f14
aV\u505a
aV\u5f85
aV\u5207
aV\u554a
aV\u6c89
aV\u6df1
aV\u5b8c
aV\u53d7
aV\u949f
aV\u7ebf
aV\u795e
aV\u62e5
aV\u89e3
aV\u53e5
aV\u9192
aV\u5988
aV\u7b80
aV\u4e8e
aV\u539f
aV\u75db
aV\u70df
aV\u53cc
aV\u7a7f
aV\u53e4
aV\u6218
aV\u65ad
aV\u4e45
aV\u7ec8
aV\u51b0
aV\u6b65
aV\u4f20
aV\u5176
aV\u5b66
aV\u5c11
aV\u5165
aV\u70e6
aV\u601d
aV\u54ea
aV\u88c5
aV\u89d2
aV\u54ed
aV\u7247
aV\u5466
aV\u547d
aV\u706b
aV\u7a97
aV\u7403
aV\u9ebb
aV\u62cd
aV\u96fe
aV\u5012
aV\u673a
aV\u94c3
aV\u7531
aV\u4e60
aV\u5077
aV\u4eb2
aV\u5f26
aV\u8857
aV\u5594
aV\u5f62
aV\u7ed3
aV\u6d6a
aV\u6536
aV\u6b21
aV\u5f20
aV\u6000
aV\u8282
aV\u5439
aV\u76f8
aV\u51b7
aV\u4e1c
aV\u7b14
aV\u966a
aV\u5821
aV\u8bfb
aV\u4e24
aV\u9ad8
aV\u6b63
aV\u54ce
aV\u8fde
aV\u65c1
aV\u7ee7
aV\u540d
aV\u9ebc
aV\u6307
aV\u788e
aV\u6447
aV\u6563
aV\u5316
aV\u80cc
aV\u4fe1
aV\u6027
aV\u725b
aV\u6bcf
aV\u9b54
aV\u5ba2
aV\u70e7
aV\u5200
aV\u8dd1
aV\u4e3d
aV\u5b9e
aV\u4e3b
aV\u54c8
aV\u571f
aV\u4e8c
aV\u65e7
aV\u665a
aV\u8c03
aV\u66f4
aV\u6574
aV\u5ea6
aV\u4ed4
aV\u8ffd
aV\u706f
aV\u67d4
aV\u5b57
aV\u7d2f
aV\u62ff
aV\u4e34
aV\u53f7
aV\u53f6
aV\u811a
aV\u6597
aV\u8fdb
aV\u8bed
aV\u8033
aV\u8349
aV\u7834
aV\u8fd1
aV\u4f4f
aV\u627f
aV\u6dcb
aV\u54c7
aV\u8c22
aV\u5f80
aV\u6cb3
aV\u7ed5
aV\u5bfb
aV\u9c7c
aV\u504f
aV\u6740
aV\u6c99
aV\u7ba1
aV\u9752
aV\u6572
aV\u5e73
aV\u6d3b
aV\u5417
aV\u677f
aV\u5f03
aV\u822c
aV\u53cd
aV\u5e94
aV\u52a0
aV\u7ffb
aV\u8336
aV\u521a
aV\u5019
aV\u7ec6
aV\u8111
aV\u6e38
aV\u7535
aV\u53f0
aV\u98d8
aV\u613f
aV\u7237
aV\u574f
aV\u5c3d
aV\u8840
aV\u5cb8
aV\u79cb
aV\u671f
aV\u517d
aV\u60b2
aV\u7ea2
aV\u547c
aV\u62c9
aV\u72ec
aV\u76ee
aV\u65cb
aV\u6e10
aV\u5bb3
aV\u4e66
aV\u672a
aV\u51c6
aV\u5dee
aV\u9f99
aV\u4e4e
aV\u534a
aV\u5148
aV\u53cb
aV\u540c
aV\u60ef
aV\u5267
aV\u6f2b
aV\u6362
aV\u604b
aV\u6811
aV\u70ed
aV\u7edd
aV\u4efb
aV\u5c1d
aV\u9a6c
aV\u4e0e
aV\u82e6
aV\u8ba4
aV\u65bc
aV\u5de6
aV\u563f
aV\u7167
aV\u8d56
aV\u5b64
aV\u821e
aV\u575a
aV\u4e13
aV\u7adf
aV\u620f
aV\u9b42
aV\u9897
aV\u5708
aV\u6a21
aV\u79d8
aV\u53f3
aV\u529e
aV\u5438
aV\u5f15
aV\u6c5f
aV\u6bdb
aV\u9694
aV\u8bd7
aV\u5e38
aV\u9152
aV\u767e
aV\u7ae5
aV\u594f
aV\u5a46
aV\u95ed
aV\u6761
aV\u897f
aV\u7eaf
aV\u786c
aV\u9898
aV\u56db
aV\u7eea
aV\u672c
aV\u7238
aV\u6dc7
aV\u5462
aV\u4e71
aV\u4eae
aV\u5fcd
aV\u9690
aV\u590f
aV\u54d2
aV\u5269
aV\u5907
aV\u800d
aV\u4f53
aV\u9003
aV\u5305
aV\u94c1
aV\u901a
aV\u6613
aV\u8fce
aV\u8ff7
aV\u7cd6
aV\u901f
aV\u7269
aV\u775b
aV\u82e5
aV\u8bb2
aV\u6559
aV\u6301
aV\u72b6
aV\u6697
aV\u8ddd
aV\u7ea6
aV\u5e8f
aV\u7eb8
aV\u8f83
aV\u7eb7
aV\u8e66
aV\u671d
aV\u5435
aV\u798f
aV\u52fe
aV\u50bb
aV\u820d
aV\u5e08
aV\u8c61
aV\u793c
aV\u4efd
aV\u654c
aV\u670b
aV\u9875
aV\u4ea4
aV\u975e
aV\u6728
aV\u5e97
aV\u4f4d
aV\u6491
aV\u5899
aV\u6b64
aV\u5b58
aV\u5174
aV\u5047
aV\u6d88
aV\u672f
aV\u4f1e
aV\u6216
aV\u91ce
aV\u6084
aV\u6298
aV\u606f
aV\u5212
aV\u8d85
aV\u523b
aV\u74f6
aV\u5e0c
aV\u871c
aV\u5426
aV\u5b63
aV\u6ce8
aV\u5c5e
aV\u76d8
aV\u75af
aV\u54e6
aV\u6c11
aV\u4e91
aV\u6b62
aV\u9996
aV\u62bd
aV\u8bd5
aV\u558a
aV\u9047
aV\u7f18
aV\u63d0
aV\u8d76
aV\u53ca
aV\u7406
aV\u5c01
aV\u8f6e
aV\u8dcc
aV\u4e61
aV\u7075
aV\u6ef4
aV\u4e70
aV\u6f6e
aV\u5e78
aV\u5bc6
aV\u6539
aV\u683c
aV\u5341
aV\u6ee9
aV\u70ae
aV\u51ac
aV\u7741
aV\u5bde
aV\u5b88
aV\u888b
aV\u5bc2
aV\u731c
aV\u63a7
aV\u60d1
aV\u521d
aV\u677e
aV\u5370
aV\u96ea
aV\u6591
aV\u676f
aV\u6ce1
aV\u551b
aV\u91ca
aV\u719f
aV\u5178
aV\u80dc
aV\u7eaa
aV\u6643
aV\u4e49
aV\u8fc8
aV\u8106
aV\u8170
aV\u51fb
aV\u5668
aV\u514b
aV\u5351
aV\u95ea
aV\u82f1
aV\u8089
aV\u6570
aV\u52aa
aV\u65b0
aV\u62f3
aV\u54fc
aV\u638c
aV\u63e1
aV\u6b66
aV\u989c
aV\u8361
aV\u561f
aV\u878d
aV\u80f8
aV\u7f13
aV\u5185
aV\u501f
aV\u65e9
aV\u603b
aV\u7b2c
aV\u8d25
aV\u544a
aV\u50b2
aV\u6028
aV\u9020
aV\u7eff
aV\u5f55
aV\u5578
aV\u6c49
aV\u52cb
aV\u8bf1
aV\u914d
aV\u9662
aV\u6781
aV\u5b69
aV\u4ef0
aV\u5954
aV\u6696
aV\u5ea7
aV\u8c05
aV\u52bf
aV\u6c42
aV\u7c73
aV\u9001
aV\u75c5
aV\u68d2
aV\u4f3c
aV\u71c3
aV\u56ed
aV\u6562
aV\u5c18
aV\u7b54
aV\u9006
aV\u58c1
aV\u5409
aV\u5f2f
aV\u5fd9
aV\u6de1
aV\u6bc1
aV\u9009
aV\u6839
aV\u9884
aV\u6094
aV\u6751
aV\u7ad9
aV\u95f9
aV\u89c6
aV\u4e07
aV\u6401
aV\u964d
aV\u5e7d
aV\u7ffc
aV\u5915
aV\u5f3a
aV\u9876
aV\u8bc1
aV\u62db
aV\u89c2
aV\u526a
aV\u56fd
aV\u695a
aV\u4e56
aV\u60ca
aV\u9000
aV\u6625
aV\u5357
aV\u8de8
aV\u4f7f
aV\u7b1b
aV\u8679
aV\u62b9
aV\u67aa
aV\u519b
aV\u5347
aV\u8ff9
aV\u5e2e
aV\u6068
aV\u5c16
aV\u80a9
aV\u626f
aV\u5507
aV\u4eca
aV\u5e55
aV\u8eb2
aV\u5361
aV\u5986
aV\u54e5
aV\u6bb5
aV\u5561
aV\u7968
aV\u836f
aV\u53f9
aV\u91cf
aV\u6735
aV\u62dc
aV\u72fc
aV\u5f0f
aV\u8a00
aV\u9669
aV\u90e8
aV\u95fb
aV\u76d2
aV\u68ee
aV\u9650
aV\u5e9f
aV\u722c
aV\u732b
aV\u76ae
aV\u65cf
aV\u5496
aV\u8776
aV\u4e11
aV\u8352
aV\u53f2
aV\u6212
aV\u6cb9
aV\u5386
aV\u6b8b
aV\u77f3
aV\u5a01
aV\u5883
aV\u5fd7
aV\u653b
aV\u5a18
aV\u955c
aV\u5948
aV\u6302
aV\u724c
aV\u5de8
aV\u65c5
aV\u7fbd
aV\u7cfb
aV\u8003
aV\u9677
aV\u94f6
aV\u57cb
aV\u656c
aV\u8005
aV\u7279
aV\u6674
aV\u96d5
aV\u538b
aV\u4e03
aV\u590d
aV\u55f7
aV\u8baf
aV\u73a9
aV\u513f
aV\u952e
aV\u72c2
aV\u6d2a
aV\u5976
aV\u4e3e
aV\u5947
aV\u8f7d
aV\u62a5
aV\u5757
aV\u6d12
aV\u52c7
aV\u5956
aV\u5509
aV\u6821
aV\u6865
aV\u68cd
aV\u8d4f
aV\u9189
aV\u66a7
aV\u6627
aV\u8bfa
aV\u7530
aV\u6652
aV\u867d
aV\u5175
aV\u6b23
aV\u8c08
aV\u4fca
aV\u5951
aV\u67af
aV\u79fb
aV\u8180
aV\u652f
aV\u62c5
aV\u5f7c
aV\u5c27
aV\u5e7b
aV\u7cbd
aV\u59ff
aV\u8131
aV\u6001
aV\u649e
aV\u7acb
aV\u644a
aV\u62c6
aV\u7977
aV\u6f02
aV\u6234
aV\u543b
aV\u5c4b
aV\u6446
aV\u6670
aV\u963b
aV\u4e22
aV\u8273
aV\u5f8b
aV\u5750
aV\u659c
aV\u7483
aV\u4e94
aV\u7f3a
aV\u85cf
aV\u552f
aV\u62a4
aV\u54c0
aV\u6324
aV\u9c9c
aV\u53ee
aV\u7070
aV\u6392
aV\u5272
aV\u592b
aV\u5c04
aV\u4f4e
aV\u6768
aV\u4e4c
aV\u5e02
aV\u94b1
aV\u5486
aV\u6069
aV\u5904
aV\u8000
aV\u6297
aV\u51f6
aV\u8499
aV\u8db3
aV\u73cd
aV\u5e3d
aV\u60ac
aV\u7a3b
aV\u5565
aV\u738b
aV\u5237
aV\u5ffd
aV\u5fe7
aV\u8bc9
aV\u54cd
aV\u5f7b
aV\u91d1
aV\u7529
aV\u66b4
aV\u5acc
aV\u6bc5
aV\u6eda
aV\u6e83
aV\u75d5
aV\u53e6
aV\u788d
aV\u9a84
aV\u88ad
aV\u5251
aV\u679d
aV\u978b
aV\u81f3
aV\u53d4
aV\u5df7
aV\u5229
aV\u72d7
aV\u96c4
aV\u5806
aV\u69bb
aV\u4fbf
aV\u516b
aV\u516d
aV\u7236
aV\u7cca
aV\u6b7b
aV\u5440
aV\u76d7
aV\u539a
aV\u7f1d
aV\u5657
aV\u526f
aV\u63cf
aV\u906e
aV\u56f4
aV\u5145
aV\u8239
aV\u961f
aV\u633d
aV\u7387
aV\u9635
aV\u6668
aV\u607c
aV\u6311
aV\u5371
aV\u5bab
aV\u67d3
aV\u8713
aV\u66fe
aV\u5c81
aV\u622a
aV\u54c1
aV\u6467
aV\u5348
aV\u62e9
aV\u873b
aV\u4f0a
aV\u6599
aV\u7f6a
aV\u7b3c
aV\u5c3e
aV\u5bfc
aV\u56a3
aV\u5ed3
aV\u778e
aV\u79d2
aV\u4e89
aV\u68ad
aV\u9a91
aV\u5236
aV\u73bb
aV\u8584
aV\u9038
aV\u6742
aV\u6e9c
aV\u58a8
aV\u6f47
aV\u90ce
aV\u4e5d
aV\u5e7f
aV\u9891
aV\u9ea6
aV\u7720
aV\u7b28
aV\u64ad
aV\u72b9
aV\u95f7
aV\u9065
aV\u96f6
aV\u5999
aV\u5f25
aV\u565c
aV\u903c
aV\u6d45
aV\u6d53
aV\u88c2
aV\u5450
aV\u8d2a
aV\u5510
aV\u4f17
aV\u9e20
aV\u54a7
aV\u6089
aV\u635e
aV\u6c57
aV\u84dd
aV\u7af9
aV\u90aa
aV\u5fe0
aV\u81f4
aV\u5b9d
aV\u6478
aV\u660f
aV\u7518
aV\u7eb5
aV\u9886
aV\u5317
aV\u51c0
aV\u8424
aV\u9057
aV\u53ed
aV\u70c2
aV\u670d
aV\u6325
aV\u4fa7
aV\u6a2a
aV\u73af
aV\u77ac
aV\u5582
aV\u9a73
aV\u522e
aV\u6676
aV\u8ba8
aV\u776b
aV\u7fc5
aV\u70db
aV\u6ce3
aV\u9488
aV\u8c23
aV\u63d2
aV\u5171
aV\u5170
aV\u7ec3
aV\u8eba
aV\u5e45
aV\u7a81
aV\u5802
aV\u6052
aV\u53db
aV\u5957
aV\u5475
aV\u5c40
aV\u9632
aV\u6ea2
aV\u6c61
aV\u64e6
aV\u7a83
aV\u5706
aV\u7532
aV\u6f20
aV\u602a
aV\u9646
aV\u63a8
aV\u5b54
aV\u5fc5
aV\u9910
aV\u4f34
aV\u7fd4
aV\u5377
aV\u5c14
aV\u6807
aV\u8bc6
aV\u7f69
aV\u5524
aV\u83ab
aV\u54e9
aV\u5f13
aV\u6296
aV\u5c55
aV\u4f73
aV\u9178
aV\u8d1d
aV\u5de7
aV\u94a2
aV\u641e
aV\u8dc3
aV\u8774
aV\u7fa4
aV\u8fdd
aV\u67f4
aV\u58f6
aV\u6270
aV\u9e23
aV\u4ed8
aV\u60dc
aV\u6daf
aV\u4ed9
aV\u67f3
aV\u7a76
aV\u5ba0
aV\u56fe
aV\u8eac
aV\u59b9
aV\u8109
aV\u626e
aV\u7d20
aV\u503e
aV\u793a
aV\u71d5
aV\u59e5
aV\u8885
aV\u7626
aV\u7fa1
aV\u804a
aV\u987a
aV\u5ef6
aV\u917f
aV\u7edf
aV\u5a07
aV\u78b0
aV\u53c2
aV\u5b87
aV\u7a9d
aV\u80a1
aV\u5f69
aV\u5e8a
aV\u5598
aV\u5f1f
aV\u75d8
aV\u7eb3
aV\u674e
aV\u7bf1
aV\u6a90
aV\u7f9e
aV\u4e53
aV\u614c
aV\u4e7e
aV\u4e52
aV\u60f9
aV\u5143
aV\u86cb
aV\u5f31
aV\u51cc
aV\u64cd
aV\u8fd0
aV\u76d6
aV\u7259
aV\u8363
aV\u7bad
aV\u949e
aV\u79c0
aV\u5e03
aV\u521b
aV\u8822
aV\u5f02
aV\u996e
aV\u9b45
aV\u6551
aV\u6295
aV\u5446
aV\u5b99
aV\u8d62
aV\u8427
aV\u94dc
aV\u56f0
aV\u5c42
aV\u6e21
aV\u9631
aV\u62ac
aV\u827e
aV\u57fa
aV\u6b87
aV\u7cbe
aV\u59d0
aV\u626d
aV\u6280
aV\u8d35
aV\u72e0
aV\u7f8a
aV\u6405
aV\u8f88
aV\u5723
aV\u53e0
aV\u86ee
aV\u9177
aV\u96f7
aV\u62f1
aV\u7b5d
aV\u523a
aV\u987e
aV\u80af
aV\u534e
aV\u5854
aV\u6b49
aV\u97a0
aV\u672b
aV\u85c9
aV\u6d6e
aV\u4e18
aV\u629b
aV\u4e58
aV\u625b
aV\u763e
aV\u7554
aV\u9713
aV\u9ece
aV\u5760
aV\u8fed
aV\u4eac
aV\u5939
aV\u4ead
aV\u62b5
aV\u88d9
aV\u5f8c
aV\u7d22
aV\u6d82
aV\u6905
aV\u6309
aV\u61ca
aV\u9986
aV\u5b5d
aV\u8036
aV\u9634
aV\u7565
aV\u80e1
aV\u9605
aV\u6eaa
aV\u585e
aV\u5618
aV\u9017
aV\u5c0a
aV\u697c
aV\u5584
aV\u8fa8
aV\u5385
aV\u6cbb
aV\u6c50
aV\u77ed
aV\u9119
aV\u4e27
aV\u7948
aV\u7267
aV\u7a77
aV\u8f91
aV\u6c27
aV\u67b6
aV\u8bbe
aV\u766b
aV\u8bfe
aV\u818f
aV\u5144
aV\u5d07
aV\u6050
aV\u58eb
aV\u66ff
aV\u5e84
aV\u62fc
aV\u5f04
aV\u8513
aV\u6655
aV\u707f
aV\u5306
aV\u684c
aV\u60e7
aV\u716e
aV\u6495
aV\u8d64
aV\u5c45
aV\u6e56
aV\u529f
aV\u9732
aV\u813e
aV\u7aef
aV\u4ecd
aV\u5570
aV\u9707
aV\u9a9a
aV\u5f81
aV\u6726
aV\u80e7
aV\u8c8c
aV\u75b2
aV\u7bee
aV\u6492
aV\u4fb5
aV\u5bbd
aV\u60eb
aV\u6cf3
aV\u6101
aV\u5bd2
aV\u7891
aV\u82ad
aV\u80c1
aV\u6cc9
aV\u6b47
aV\u9c81
aV\u6c9f
aV\u7b26
aV\u5ffe
aV\u94a5
aV\u7738
aV\u6d74
aV\u832b
aV\u8702
aV\u6808
aV\u7ea7
aV\u6848
aV\u79e9
aV\u62ef
aV\u7737
aV\u5265
aV\u730e
aV\u9f13
aV\u74f7
aV\u602f
aV\u866b
aV\u8f9b
aV\u96b6
aV\u9f3b
aV\u8ff0
aV\u8e44
aV\u7262
aV\u6070
aV\u6e2f
aV\u594b
aV\u54bf
aV\u8749
aV\u4f59
aV\u7ae0
aV\u4f18
aV\u5937
aV\u7591
aV\u86c7
aV\u55e6
aV\u5ba4
aV\u8e48
aV\u609f
aV\u68af
aV\u543c
aV\u8feb
aV\u5e76
aV\u5492
aV\u84b2
aV\u75bc
aV\u53e8
aV\u73ed
aV\u4eff
aV\u8c13
aV\u5217
aV\u59c6
aV\u6e7f
aV\u96c5
aV\u6076
aV\u64ce
aV\u79f0
aV\u5356
aV\u9002
aV\u73ab
aV\u94c5
aV\u6e7e
aV\u5996
aV\u8425
aV\u71ac
aV\u5df4
aV\u72af
aV\u59fb
aV\u516e
aV\u58f3
aV\u638f
aV\u8c26
aV\u9171
aV\u632b
aV\u8a93
aV\u6620
aV\u9e70
aV\u5319
aV\u8165
aV\u6cfc
aV\u6ed1
aV\u8760
aV\u5219
aV\u6025
aV\u6c7d
aV\u9eef
aV\u8e0f
aV\u901b
aV\u6170
aV\u4ee4
aV\u6267
aV\u74dc
aV\u8150
aV\u7801
aV\u8292
aV\u4e25
aV\u8861
aV\u9675
aV\u5b81
aV\u915d
aV\u6b20
aV\u8fa3
aV\u515c
aV\u6ce5
aV\u55e8
aV\u5609
aV\u82a6
aV\u7687
aV\u7f20
aV\u6c60
aV\u7470
aV\u7897
aV\u623f
aV\u971c
aV\u8e22
aV\u5ead
aV\u6d0b
aV\u5bc4
aV\u7985
aV\u6293
aV\u63a9
aV\u561b
aV\u8270
aV\u72c8
aV\u7a84
aV\u6b38
aV\u5b98
aV\u96c6
aV\u5373
aV\u6d1e
aV\u76cf
aV\u74e3
aV\u8870
aV\u8986
aV\u5d29
aV\u9ca8
aV\u987b
aV\u5dfe
aV\u6682
aV\u5ca9
aV\u6846
aV\u51cb
aV\u865a
aV\u5076
aV\u56fa
aV\u704c
aV\u9012
aV\u7f29
aV\u75f9
aV\u65af
aV\u8d34
aV\u6e34
aV\u5360
aV\u900d
aV\u550f
aV\u8d1f
aV\u6cca
aV\u62d6
aV\u6a71
aV\u82ac
aV\u533a
aV\u793e
aV\u4ec7
aV\u5f52
aV\u4fdd
aV\u5f92
aV\u7c7b
aV\u7436
aV\u8c46
aV\u59d3
aV\u950b
aV\u629a
aV\u5f27
aV\u9e3d
aV\u78be
aV\u534f
aV\u575b
aV\u5c3c
aV\u6f66
aV\u636e
aV\u8e2a
aV\u7fd8
aV\u8299
aV\u582a
aV\u55b7
aV\u5636
aV\u58d5
aV\u9b3c
aV\u68f5
aV\u90c1
aV\u5f90
aV\u9977
aV\u59d4
aV\u4f5b
aV\u9010
aV\u9614
aV\u8bad
aV\u8eaf
aV\u53fd
aV\u98a0
aV\u54e8
aV\u4e1a
aV\u7f24
aV\u94a9
aV\u5761
aV\u4ec5
aV\u6548
aV\u4fef
aV\u4e9a
aV\u9e25
aV\u52d2
aV\u83dc
aV\u675f
aV\u8f6f
aV\u517b
aV\u6346
aV\u7ee3
aV\u6982
aV\u996d
aV\u5c4f
aV\u5495
aV\u5c3a
aV\u8d2f
aV\u8231
aV\u7b4b
aV\u7ed1
aV\u7838
aV\u7ef7
aV\u9aa4
aV\u5938
aV\u4fd7
aV\u74e6
aV\u59a5
aV\u82b3
aV\u8b66
aV\u51c4
aV\u7ea0
aV\u60b4
aV\u5de2
aV\u6289
aV\u5ba3
aV\u5632
aV\u4ec1
aV\u5065
aV\u72e9
aV\u9e21
aV\u6b43
aV\u5353
aV\u4f2a
aV\u6d3e
aV\u5c48
aV\u4e54
aV\u70eb
aV\u76ef
aV\u63a2
aV\u514d
aV\u6bd2
aV\u6d69
aV\u9971
aV\u7ef4
aV\u840e
aV\u8d28
aV\u70c1
aV\u7bc7
aV\u82cd
aV\u62a2
aV\u6b27
aV\u5eca
aV\u6851
aV\u51d1
aV\u8377
aV\u6479
aV\u7b06
aV\u52ab
aV\u7444
aV\u7cdf
aV\u6321
aV\u542f
aV\u8d4b
aV\u7545
aV\u5320
aV\u8f93
aV\u70ad
aV\u8f68
aV\u9798
aV\u785d
aV\u5c9b
aV\u4ea7
aV\u8389
aV\u5782
aV\u9500
aV\u6ee4
aV\u827a
aV\u5e1d
aV\u8e29
aV\u4f11
aV\u8721
aV\u54ac
aV\u8309
aV\u6e3a
aV\u82f9
aV\u7184
aV\u810f
aV\u6323
aV\u542d
aV\u6577
aV\u4e8f
aV\u79c1
aV\u5146
aV\u5448
aV\u68cb
aV\u7f5a
aV\u76df
aV\u6860
aV\u8715
aV\u7433
aV\u8d39
aV\u61e6
aV\u9881
aV\u9508
aV\u8c0e
aV\u8da3
aV\u745e
aV\u9a82
aV\u5e05
aV\u4f0f
aV\u8327
aV\u817b
aV\u7a00
aV\u5dc5
aV\u51dd
aV\u6c64
aV\u7709
aV\u690d
aV\u541f
aV\u6653
aV\u5575
aV\u6291
aV\u6012
aV\u91c7
aV\u72f1
aV\u7435
aV\u4e39
aV\u884d
aV\u5d16
aV\u715e
aV\u70c8
aV\u8863
aV\u7a1a
aV\u5a5a
aV\u5deb
aV\u7f57
aV\u76f2
aV\u7248
aV\u545c
aV\u853d
aV\u6155
aV\u5e01
aV\u708a
aV\u6d8c
aV\u6194
aV\u77b0
aV\u7e41
aV\u9547
aV\u8865
aV\u817f
aV\u6b32
aV\u59d1
aV\u51e1
aV\u9664
aV\u626c
aV\u70bc
aV\u53a2
aV\u7ed8
aV\u7fbf
aV\u773a
aV\u8717
aV\u538c
aV\u51a0
aV\u9523
aV\u8543
aV\u80d6
aV\u9f7f
aV\u548f
aV\u6458
aV\u62ab
aV\u4e88
aV\u7c3f
aV\u8759
aV\u626b
aV\u5a9a
aV\u508d
aV\u8e1e
aV\u7cd5
aV\u5564
aV\u568e
aV\u699c
aV\u7425
aV\u8db4
aV\u6743
aV\u94fa
aV\u5224
aV\u6c70
aV\u6284
aV\u6a1f
aV\u846b
aV\u9882
aV\u96cf
aV\u9ebd
aV\u5bbf
aV\u504e
aV\u5238
aV\u8682
aV\u6717
aV\u6d1b
aV\u8c31
aV\u51a5
aV\u642c
aV\u80b2
aV\u6756
aV\u6258
aV\u68c2
aV\u6f31
aV\u8c6a
aV\u72f8
aV\u8681
aV\u578b
aV\u718f
aV\u67ab
aV\u5ae9
aV\u5815
aV\u809a
aV\u642d
aV\u60da
aV\u53f8
aV\u5d0e
aV\u9493
aV\u5189
aV\u5c38
aV\u90bb
aV\u5654
aV\u655e
aV\u8549
aV\u886b
aV\u8881
aV\u5026
aV\u7cb9
aV\u5eb7
aV\u84c9
aV\u7bf7
aV\u7a0d
aV\u4f2f
aV\u6cae
aV\u6dd8
aV\u69ad
aV\u83b1
aV\u5de5
aV\u5ef7
aV\u5f79
aV\u5b8b
aV\u7ca5
aV\u6beb
aV\u7f50
aV\u8d81
aV\u5410
aV\u94bb
aV\u4ed7
aV\u5be5
aV\u9636
aV\u6843
aV\u83ca
aV\u845b
aV\u8bda
aV\u76fc
aV\u6108
aV\u5b8f
aV\u6148
aV\u7ecd
aV\u7978
aV\u9b4f
aV\u67dc
aV\u5bfa
aV\u63f4
aV\u5f77
aV\u9879
aV\u5824
aV\u5c4c
aV\u5766
aV\u53e9
aV\u997a
aV\u6233
aV\u9965
aV\u822a
aV\u9f20
aV\u52a9
aV\u9893
aV\u4e01
aV\u6d17
aV\u6fc0
aV\u89c4
aV\u5a1c
aV\u70ab
aV\u5458
aV\u5f8a
aV\u786e
aV\u7a9c
aV\u9e1f
aV\u84b8
aV\u62cc
aV\u60e0
aV\u8463
aV\u7c89
aV\u82c7
aV\u5543
aV\u8fd4
aV\u62e2
aV\u4eea
aV\u54ee
aV\u828b
aV\u8fa9
aV\u7bb1
aV\u5c34
aV\u6f3e
aV\u51ed
aV\u759a
aV\u8fbe
aV\u53d6
aV\u795d
aV\u5ec9
aV\u9738
aV\u549a
aV\u5e9e
aV\u73c0
aV\u604d
aV\u54ab
aV\u6c6a
aV\u8fbd
aV\u82cf
aV\u6bd5
aV\u566c
aV\u9a74
aV\u8521
aV\u7edc
aV\u7384
aV\u6ca6
aV\u4ecb
aV\u5239
aV\u84e6
aV\u5218
aV\u711a
aV\u589f
aV\u6ca7
aV\u6b3e
aV\u98df
aV\u79d1
aV\u5b97
aV\u838e
aV\u6cbc
aV\u54a9
aV\u7597
aV\u7130
aV\u8d3c
aV\u96c1
aV\u624e
aV\u5398
aV\u8d27
aV\u5177
aV\u5a49
aV\u7981
aV\u8010
aV\u7d6e
aV\u6df9
aV\u857e
aV\u5530
aV\u6349
aV\u529d
aV\u541e
aV\u7409
aV\u4fcf
aV\u6f0f
aV\u62e8
aV\u873f
aV\u9e45
aV\u964c
aV\u7fe0
aV\u6469
aV\u6c79
aV\u6c8f
aV\u5e18
aV\u55b5
aV\u6454
aV\u54df
aV\u62d0
aV\u796d
aV\u72f0
aV\u5c1a
aV\u52b1
aV\u4f38
aV\u663e
aV\u867e
aV\u5f98
aV\u519c
aV\u6127
aV\u6251
aV\u7ad6
aV\u6a61
aV\u6977
aV\u5b85
aV\u6410
aV\u8712
aV\u6da1
aV\u5546
aV\u51c9
aV\u817e
aV\u969c
aV\u8bba
aV\u6355
aV\u82d4
aV\u7334
aV\u5434
aV\u524a
aV\u98d9
aV\u5c96
aV\u754a
aV\u5c2c
aV\u52b3
aV\u65bd
aV\u6ecb
aV\u62d3
aV\u90ca
aV\u6dcc
aV\u95f2
aV\u5e16
aV\u9a97
aV\u8154
aV\u5192
aV\u6df7
aV\u5c82
aV\u54b1
aV\u4fa0
aV\u70ca
aV\u67d0
aV\u55dc
aV\u72de
aV\u4ef6
aV\u77a5
aV\u82d7
aV\u5eb8
aV\u8d5e
aV\u63ed
aV\u5478
aV\u6382
aV\u9890
aV\u679a
aV\u6cc4
aV\u5121
aV\u5d69
aV\u62ec
aV\u9e7f
aV\u6f2a
aV\u6518
aV\u6930
aV\u75d2
aV\u8fdf
aV\u62ed
aV\u5fff
aV\u8096
aV\u4f1f
aV\u612b
aV\u63ac
aV\u7a3d
aV\u81c0
aV\u914b
aV\u8102
aV\u8404
aV\u8f89
aV\u7802
aV\u90ae
aV\u5220
aV\u6444
aV\u57f9
aV\u5992
aV\u5ba6
aV\u7b51
aV\u7779
aV\u9a7b
aV\u95fa
aV\u8718
aV\u6d9f
aV\u52a1
aV\u9022
aV\u64c5
aV\u714c
aV\u7b50
aV\u60ed
aV\u6c13
aV\u7f15
aV\u997c
aV\u518c
aV\u6a31
aV\u6241
aV\u754f
aV\u76ce
aV\u7261
aV\u7763
aV\u836b
aV\u987d
aV\u6989
aV\u5893
aV\u67ad
aV\u6d46
aV\u564c
aV\u6cdb
aV\u816e
aV\u8bf5
aV\u5e7c
aV\u8782
aV\u789f
aV\u804b
aV\u7a3f
aV\u64c0
aV\u8043
aV\u77e2
aV\u826f
aV\u6cf0
aV\u8bbf
aV\u7efc
aV\u6500
aV\u8304
aV\u6d32
aV\u5a6a
aV\u727a
aV\u8f9c
aV\u99a8
aV\u80ae
aV\u5c51
aV\u56e2
aV\u6f06
aV\u8c1c
aV\u7ba9
aV\u4e30
aV\u5fd1
aV\u71e5
aV\u846c
aV\u4e1b
aV\u9aa8
aV\u6db2
aV\u5339
aV\u6c47
aV\u964b
aV\u8bde
aV\u70e4
aV\u84ec
aV\u8a89
aV\u9e26
aV\u503a
aV\u9f50
aV\u65d7
aV\u6656
aV\u62d9
aV\u69df
aV\u9a7e
aV\u8303
aV\u5bc7
aV\u8e31
aV\u7239
aV\u50e7
aV\u51e4
aV\u997f
aV\u7b8d
aV\u9ab7
aV\u62c7
aV\u57d5
aV\u9e64
aV\u9976
aV\u5413
aV\u829c
aV\u9970
aV\u74a8
aV\u68c0
aV\u4ec4
aV\u6775
aV\u5a77
aV\u819b
aV\u88c1
aV\u94e9
aV\u77ff
aV\u91c9
aV\u6635
aV\u723d
aV\u5bcc
aV\u9655
aV\u8bec
aV\u5efa
aV\u8700
aV\u5112
aV\u601c
aV\u4e32
aV\u573e
aV\u854a
aV\u584c
aV\u8d5a
aV\u756a
aV\u886c
aV\u6a80
aV\u7a0b
aV\u788c
aV\u4f9b
aV\u9ca4
aV\u4e43
aV\u72d0
aV\u4fee
aV\u9877
aV\u8e2e
aV\u7f38
aV\u7792
aV\u5740
aV\u780d
aV\u963f
aV\u63b0
aV\u533b
aV\u51cf
aV\u8e59
aV\u96a7
aV\u9526
aV\u732a
aV\u8bc5
aV\u5254
aV\u5c60
aV\u6d01
aV\u5792
aV\u6e17
aV\u821f
aV\u851a
aV\u8335
aV\u5e37
aV\u8fc2
aV\u8c6b
aV\u8f97
aV\u7aa5
aV\u77a7
aV\u53bf
aV\u54d1
aV\u66dd
aV\u675c
aV\u5ce1
aV\u6bef
aV\u707e
aV\u4fac
aV\u6c41
aV\u8747
aV\u655b
aV\u635f
aV\u8d6b
aV\u7791
aV\u5014
aV\u641c
aV\u5fa1
aV\u8fc1
aV\u6746
aV\u86db
aV\u5ae3
aV\u57a6
aV\u6731
aV\u58e4
aV\u7b79
aV\u767b
aV\u907f
aV\u7a0e
aV\u80da
aV\u55a7
aV\u51ff
aV\u82de
aV\u5bf8
aV\u820c
aV\u8bbd
aV\u63cd
aV\u67e5
aV\u8de9
aV\u5080
aV\u81c2
aV\u8725
aV\u5978
aV\u5dde
aV\u8fea
aV\u8910
aV\u9f9f
aV\u8222
aV\u7f34
aV\u6361
aV\u4ed5
aV\u5b9c
aV\u6cbe
aV\u9041
aV\u5c49
aV\u56da
aV\u5404
aV\u751a
aV\u6e89
aV\u8bd1
aV\u7a91
aV\u7ef3
aV\u808c
aV\u640f
aV\u64a4
aV\u8d9f
aV\u8be6
aV\u5783
aV\u57c3
aV\u95ef
aV\u66f9
aV\u647a
aV\u9082
aV\u65a4
aV\u5bb0
aV\u683d
aV\u654f
aV\u5659
aV\u83e0
aV\u85e4
aV\u706d
aV\u7bc6
aV\u9a71
aV\u7634
aV\u660c
aV\u78b3
aV\u9501
aV\u7480
aV\u80ed
aV\u6813
aV\u5e9c
aV\u7ec4
aV\u68a8
aV\u542b
aV\u7fb2
aV\u4f3d
aV\u5cf0
aV\u4eab
aV\u6bbf
aV\u70d9
aV\u5bdf
aV\u6dfb
aV\u4e92
aV\u5bb4
aV\u634f
aV\u80ce
aV\u5b5f
aV\u8461
aV\u6881
aV\u76db
aV\u892a
aV\u745c
aV\u83b9
aV\u9edb
aV\u8212
aV\u5b09
aV\u6e90
aV\u80a4
aV\u53ae
aV\u7a33
aV\u96c0
aV\u664b
aV\u7cdc
aV\u6263
aV\u65e2
aV\u9616
aV\u9f9b
aV\u7eb1
aV\u5ac9
aV\u6954
aV\u82bd
aV\u556c
aV\u51ef
aV\u5f70
aV\u65f7
aV\u6cfd
aV\u9601
aV\u9005
aV\u5e86
aV\u988a
aV\u840d
aV\u5835
aV\u8537
aV\u795f
aV\u72ee
aV\u7ff0
aV\u6279
aV\u5589
aV\u6614
aV\u65a9
aV\u5e44
aV\u574a
aV\u6bcd
aV\u8654
aV\u563b
aV\u876a
aV\u97f5
aV\u8568
aV\u63fd
aV\u7199
aV\u6cb8
aV\u6876
aV\u7a57
aV\u586b
aV\u7816
aV\u85d3
aV\u5965
aV\u535c
aV\u5fbd
aV\u7272
aV\u6d78
aV\u8d23
aV\u9175
aV\u62d2
aV\u575f
aV\u60e6
aV\u9a6d
aV\u971e
aV\u8ba1
aV\u8587
aV\u6628
aV\u8d3a
aV\u603c
aV\u8be1
aV\u8bb6
aV\u745f
aV\u8877
aV\u9187
aV\u888d
aV\u77b3
aV\u9cc5
aV\u5c9a
aV\u68a2
aV\u9cd6
aV\u555c
aV\u6838
aV\u663c
aV\u6566
aV\u4ef7
aV\u541b
aV\u60a8
aV\u7f2d
aV\u7eac
aV\u673d
aV\u61be
aV\u8df7
aV\u7959
aV\u9a6f
aV\u5375
aV\u66fc
aV\u7089
aV\u79c3
aV\u9ac5
aV\u60e9
aV\u503c
aV\u9672
aV\u5e2d
aV\u7235
aV\u5c41
aV\u5747
aV\u6d4b
aV\u7389
aV\u4f2b
aV\u5389
aV\u82db
aV\u6fa1
aV\u51b5
aV\u575e
aV\u6eb6
aV\u87d1
aV\u8054
aV\u7cd7
aV\u6fe1
aV\u8c37
aV\u803f
aV\u88e4
aV\u5587
aV\u8393
aV\u6328
aV\u6e32
aV\u52c9
aV\u8d4c
aV\u6750
aV\u7ebd
aV\u79ef
aV\u56f1
aV\u541d
aV\u6055
aV\u6ce2
aV\u86e6
aV\u6269
aV\u8bf8
aV\u62fe
at.