(lp1
V\uff0c
aV\u3002
aV\u4e0d
aV\u4eba
aV\u65e0
aV\u98ce
aV\u4e00
aV\u82b1
aV\u6625
aV\u5c71
aV\u6708
aV\u6765
aV\u5929
aV\u65e5
aV\u6709
aV\u4f55
aV\u65f6
aV\u53bb
aV\u4e0a
aV\u591c
aV\u6c5f
aV\u76f8
aV\u4e91
aV\u6c34
aV\u957f
aV\u5e74
aV\u5982
aV\u91cc
aV\u5904
aV\u843d
aV\u697c
aV\u541b
aV\u4e2d
aV\u5f52
aV\u96e8
aV\u5343
aV\u81ea
aV\u751f
aV\u7ea2
aV\u98de
aV\u4e0b
aV\u662f
aV\u79cb
aV\u5728
aV\u660e
aV\u6101
aV\u89c1
aV\u6b64
aV\u5fc3
aV\u5bb6
aV\u9152
aV\u884c
aV\u4e3a
aV\u77e5
aV\u4e09
aV\u60c5
aV\u5c3d
aV\u58f0
aV\u6211
aV\u6d41
aV\u68a6
aV\u7389
aV\u4e1c
aV\u4e07
aV\u9ec4
aV\u5f97
aV\u8fd8
aV\u5341
aV\u5934
aV\u672a
aV\u601d
aV\u9752
aV\u897f
aV\u767d
aV\u7a7a
aV\u5357
aV\u5b50
aV\u95e8
aV\u9ad8
aV\u5bd2
aV\u65ad
aV\u4eca
aV\u9633
aV\u4e8b
aV\u65b0
aV\u57ce
aV\u8349
aV\u6cea
aV\u4f3c
aV\u91d1
aV\u5c0f
aV\u91cd
aV\u53ef
aV\u9a6c
aV\u524d
aV\u66f4
aV\u591a
aV\u70df
aV\u6b32
aV\u56de
aV\u96be
aV\u671b
aV\u5165
aV\u9999
aV\u6e05
aV\u8c01
aV\u6df1
aV\u4e0e
aV\u6811
aV\u67f3
aV\u6210
aV\u6ee1
aV\u4f5c
aV\u7eff
aV\u8fdc
aV\u610f
aV\u6068
aV\u540e
aV\u5f53
aV\u72ec
aV\u5f00
aV\u8def
aV\u8001
aV\u659c
aV\u521d
aV\u6d77
aV\u5b64
aV\u5df2
aV\u671d
aV\u5e18
aV\u65e7
aV\u8fc7
aV\u522b
aV\u5973
aV\u51e0
aV\u5ba2
aV\u8863
aV\u95fb
aV\u8f7b
aV\u6b4c
aV\u6e38
aV\u5730
aV\u79bb
aV\u6545
aV\u66ae
aV\u8272
aV\u5c06
aV\u7ec6
aV\u5230
aV\u8fb9
aV\u665a
aV\u590d
aV\u9053
aV\u8d77
aV\u5c11
aV\u51fa
aV\u7167
aV\u5916
aV\u6b8b
aV\u53f6
aV\u5149
aV\u95f2
aV\u7b11
aV\u83ab
aV\u60ca
aV\u9e1f
aV\u5bab
aV\u53cc
aV\u770b
aV\u8bed
aV\u767e
aV\u753b
aV\u82b3
aV\u95ee
aV\u4e66
aV\u95f4
aV\u72b9
aV\u96ea
aV\u5411
aV\u534a
aV\u5374
aV\u53c8
aV\u5439
aV\u71d5
aV\u4e24
aV\u8a00
aV\u5e73
aV\u56db
aV\u516e
aV\u4e8c
aV\u4e61
aV\u5c18
aV\u80fd
aV\u7f57
aV\u4e4b
aV\u6cb3
aV\u8eab
aV\u821f
aV\u7559
aV\u5317
aV\u7136
aV\u597d
aV\u53e4
aV\u53d1
aV\u4e94
aV\u5173
aV\u5e94
aV\u53f0
aV\u679d
aV\u9611
aV\u5f71
aV\u9189
aV\u5927
aV\u9762
aV\u513f
aV\u6b7b
aV\u9b42
aV\u6653
aV\u9732
aV\u5206
aV\u80a0
aV\u8f66
aV\u6ce2
aV\u5bfb
aV\u6697
aV\u91ce
aV\u6797
aV\u540c
aV\u6c99
aV\u6843
aV\u624b
aV\u6e10
aV\u96c1
aV\u6768
aV\u971c
aV\u90ce
aV\u671f
aV\u601c
aV\u5bf9
aV\u9001
aV\u738b
aV\u989c
aV\u5e7d
aV\u4f46
aV\u773c
aV\u5e72
aV\u6bcd
aV\u4ece
aV\u78a7
aV\u4e1d
aV\u534e
aV\u582a
aV\u4e71
aV\u9e23
aV\u53ea
aV\u56fd
aV\u66f2
aV\u6563
aV\u7a97
aV\u5171
aV\u975e
aV\u4f9d
aV\u60b2
aV\u6731
aV\u821e
aV\u60a0
aV\u6c14
aV\u968f
aV\u758f
aV\u51b7
aV\u5915
aV\u540d
aV\u963f
aV\u501a
aV\u7fe0
aV\u4f7f
aV\u5b89
aV\u542c
aV\u4f4e
aV\u6865
aV\u4e34
aV\u8bf4
aV\u90fd
aV\u9065
aV\u5ea6
aV\u557c
aV\u5987
aV\u82e5
aV\u56ed
aV\u9634
aV\u4f24
aV\u4ee5
aV\u5170
aV\u5f81
aV\u6000
aV\u8fde
aV\u89c9
aV\u6d6e
aV\u6570
aV\u5ead
aV\u5ff5
aV\u6885
aV\u5fae
aV\u6728
aV\u5782
aV\u82e6
aV\u66fe
aV\u4e5f
aV\u5377
aV\u4f73
aV\u70b9
aV\u4e5d
aV\u661f
aV\u8f6c
aV\u5750
aV\u660f
aV\u4fbf
aV\u4f11
aV\u77f3
aV\u51c9
aV\u5c81
aV\u8427
aV\u6b63
aV\u79e6
aV\u6d88
aV\u676f
aV\u8bc6
aV\u9022
aV\u5f26
aV\u9b13
aV\u83b2
aV\u4e45
aV\u5e26
aV\u767b
aV\u4e16
aV\u5986
aV\u5dde
aV\u5e9c
aV\u7709
aV\u6c60
aV\u5bc4
aV\u9e3f
aV\u666f
aV\u5ffd
aV\u987e
aV\u88ab
aV\u6674
aV\u5e38
aV\u7af9
aV\u6237
aV\u51ed
aV\u89d2
aV\u795e
aV\u6a2a
aV\u706f
aV\u5bc2
aV\u592b
aV\u6559
aV\u832b
aV\u73e0
aV\u9c7c
aV\u4e86
aV\u4f1a
aV\u81f3
aV\u7ec8
aV\u516d
aV\u83ba
aV\u7834
aV\u6b22
aV\u6de1
aV\u6751
aV\u5c82
aV\u6c89
aV\u7ed5
aV\u8fdf
aV\u8282
aV\u548c
aV\u6696
aV\u7ee3
aV\u4f59
aV\u60dc
aV\u8005
aV\u628a
aV\u695a
aV\u9759
aV\u4e3e
aV\u4e50
aV\u6614
aV\u70db
aV\u65e9
aV\u76f4
aV\u5802
aV\u7231
aV\u5148
aV\u8c22
aV\u5f80
aV\u4e14
aV\u6c49
aV\u540f
aV\u8584
aV\u9694
aV\u9526
aV\u7d20
aV\u4ead
aV\u52a8
aV\u6e56
aV\u7269
aV\u80e1
aV\u7edd
aV\u5408
aV\u5f04
aV\u519b
aV\u4f4f
aV\u51dd
aV\u6613
aV\u996e
aV\u98d8
aV\u5434
aV\u6e21
aV\u8bb8
aV\u4e89
aV\u7720
aV\u543e
aV\u5c4f
aV\u6daf
aV\u5fcd
aV\u65b9
aV\u9f13
aV\u5fc6
aV\u4ea6
aV\u5f85
aV\u58eb
aV\u6628
aV\u7530
aV\u89e3
aV\u9192
aV\u80dc
aV\u90a3
aV\u6298
aV\u96f6
aV\u5cb8
aV\u7a77
aV\u4ed6
aV\u6eaa
aV\u516b
aV\u75c5
aV\u76ee
aV\u9601
aV\u6795
aV\u9675
aV\u76c8
aV\u4fe1
aV\u7686
aV\u613f
aV\u5176
aV\u987b
aV\u8db3
aV\u88f3
aV\u6d32
aV\u4e58
aV\u5c3a
aV\u4ed9
aV\u9690
aV\u5a07
aV\u82cd
aV\u53d6
aV\u7b1b
aV\u8fd1
aV\u6c38
aV\u603b
aV\u7247
aV\u571f
aV\u6028
aV\u5858
aV\u8fe2
aV\u5c14
aV\u964c
aV\u59be
aV\u9063
aV\u592a
aV\u80af
aV\u53f9
aV\u84ec
aV\u6597
aV\u7ecf
aV\u6700
aV\u9650
aV\u6447
aV\u9e21
aV\u706b
aV\u5404
aV\u6536
aV\u6620
aV\u5ddd
aV\u98df
aV\u6050
aV\u7d6e
aV\u9996
aV\u4ee4
aV\u5b57
aV\u9f99
aV\u8ba1
aV\u5fd8
aV\u5b9a
aV\u58ee
aV\u6f6e
aV\u8870
aV\u7b3c
aV\u6240
aV\u5f69
aV\u77e3
aV\u94f6
aV\u9636
aV\u51e4
aV\u6307
aV\u7554
aV\u7eb7
aV\u60f3
aV\u547c
aV\u54c0
aV\u8352
aV\u9eef
aV\u677e
aV\u6f20
aV\u5ac1
aV\u5f02
aV\u4f20
aV\u6c88
aV\u5e55
aV\u9a91
aV\u5f8a
aV\u8bb0
aV\u97f3
aV\u9662
aV\u5fe7
aV\u8457
aV\u6005
aV\u7acb
aV\u75d5
aV\u4e03
aV\u8bef
aV\u6587
aV\u6c42
aV\u5bf8
aV\u8c13
aV\u516c
aV\u5bb5
aV\u96c0
aV\u5e06
aV\u51c4
aV\u541f
aV\u91c7
aV\u6ce5
aV\u4e8e
aV\u623f
aV\u7d2b
aV\u6069
aV\u6e58
aV\u955c
aV\u6302
aV\u9891
aV\u865a
aV\u7ed3
aV\u826f
aV\u6682
aV\u6f47
aV\u56e0
aV\u8299
aV\u6c5d
aV\u9e64
aV\u94a9
aV\u84c9
aV\u8896
aV\u7fa4
aV\u5251
aV\u86fe
aV\u5bb9
aV\u60df
aV\u8e2a
aV\u5e8a
aV\u674f
aV\u8377
aV\u5200
aV\u9057
aV\u8bd5
aV\u7adf
aV\u77ed
aV\u8ffd
aV\u9501
aV\u8f7d
aV\u6562
aV\u65e2
aV\u5144
aV\u54ed
aV\u8239
aV\u51b0
aV\u725b
aV\u5c1a
aV\u5f98
aV\u5c45
aV\u5174
aV\u53ca
aV\u539f
aV\u52b3
aV\u5175
aV\u626c
aV\u79fb
aV\u51a0
aV\u508d
aV\u5f13
aV\u8305
aV\u7a7f
aV\u5bbf
aV\u6218
aV\u7ffb
aV\u9614
aV\u5468
aV\u6816
aV\u7761
aV\u79cd
aV\u6842
aV\u56fe
aV\u4eac
aV\u5c4b
aV\u7f8c
aV\u611f
aV\u7c89
aV\u5f1f
aV\u9645
aV\u624d
aV\u6851
aV\u9002
aV\u8425
aV\u552f
aV\u6bbf
aV\u5bde
aV\u6025
aV\u59cb
aV\u4ea4
aV\u5f84
aV\u529b
aV\u949f
aV\u8fce
aV\u867d
aV\u59d1
aV\u538c
aV\u6b47
aV\u8f9e
aV\u8d35
aV\u626b
aV\u7236
aV\u52e4
aV\u4eb2
aV\u9aa8
aV\u606f
aV\u96fe
aV\u9010
aV\u7ea4
aV\u8bd7
aV\u8170
aV\u5367
aV\u7ba1
aV\u5f39
aV\u4e43
aV\u7ea6
aV\u83ca
aV\u7ae5
aV\u526a
aV\u7d22
aV\u6f2b
aV\u7eb5
aV\u53d7
aV\u7ef5
aV\u6cbe
aV\u800c
aV\u9e33
aV\u5c0a
aV\u9a71
aV\u840b
aV\u620f
aV\u542b
aV\u5cf0
aV\u9500
aV\u62a5
aV\u94c1
aV\u6bd4
aV\u67d4
aV\u55df
aV\u5f03
aV\u7eee
aV\u7aef
aV\u7f62
aV\u94b1
aV\u5fd7
aV\u680f
aV\u5cad
aV\u559c
aV\u573a
aV\u9664
aV\u5dfe
aV\u5e95
aV\u6cc9
aV\u538b
aV\u768e
aV\u8d1f
aV\u904d
aV\u978d
aV\u8d31
aV\u5f7c
aV\u6781
aV\u6084
aV\u4ef0
aV\u91cf
aV\u9ed1
aV\u59bb
aV\u53e3
aV\u5f3a
aV\u6247
aV\u6881
aV\u96d5
aV\u629b
aV\u5e78
aV\u6d45
aV\u8749
aV\u82f1
aV\u5b88
aV\u675c
aV\u8d2b
aV\u89c5
aV\u7626
aV\u5df7
aV\u6e14
aV\u6850
aV\u6362
aV\u5931
aV\u53c2
aV\u96c4
aV\u72c2
aV\u6d53
aV\u6d6a
aV\u50ac
aV\u8f69
aV\u643a
aV\u63a5
aV\u7ec7
aV\u585e
aV\u5bb4
aV\u8a93
aV\u95ed
aV\u8776
aV\u4e3b
aV\u51cc
aV\u901a
aV\u7eb1
aV\u706d
aV\u76d6
aV\u53d8
aV\u5473
aV\u58c1
aV\u9980
aV\u771f
aV\u5371
aV\u7687
aV\u5899
aV\u7275
aV\u5706
aV\u56f0
aV\u4fb5
aV\u5a92
aV\u62c2
aV\u6301
aV\u95fa
aV\u5f92
aV\u672c
aV\u7436
aV\u8c46
aV\u6d1b
aV\u5e90
aV\u504f
aV\u4e2a
aV\u9e26
aV\u65d7
aV\u9b3c
aV\u7528
aV\u8f6e
aV\u7f8e
aV\u7ae0
aV\u517c
aV\u7591
aV\u7b3a
aV\u52ff
aV\u5355
aV\u82d4
aV\u5426
aV\u503e
aV\u5e76
aV\u6d17
aV\u547d
aV\u5cb3
aV\u6e7f
aV\u8bcd
aV\u68a7
aV\u674e
aV\u7bf1
aV\u7f9e
aV\u8361
aV\u85cf
aV\u8c6a
aV\u8868
aV\u5948
aV\u81e3
aV\u906e
aV\u887e
aV\u4efb
aV\u5dee
aV\u529d
aV\u6bb7
aV\u6f0f
aV\u505c
aV\u8ff9
aV\u6012
aV\u7f18
aV\u68a2
aV\u7435
aV\u4e39
aV\u5546
aV\u4e4c
aV\u7531
aV\u63a9
aV\u6015
aV\u5b98
aV\u7075
aV\u6d1e
aV\u5f15
aV\u6ef4
aV\u8499
aV\u5578
aV\u7eea
aV\u518d
aV\u65c5
aV\u53cb
aV\u7f15
aV\u6241
aV\u6cca
aV\u5c55
aV\u7fbd
aV\u6cdb
aV\u5de6
aV\u59a8
aV\u6756
aV\u6740
aV\u9f50
aV\u805a
aV\u5760
aV\u62cd
aV\u90bb
aV\u8840
aV\u6070
aV\u8c03
aV\u4faf
aV\u9e25
aV\u60c6
aV\u4e18
aV\u89c2
aV\u5636
aV\u62df
aV\u7aa5
aV\u5a25
aV\u537f
aV\u67f1
aV\u9f20
aV\u4e01
aV\u9519
aV\u6539
aV\u7b5d
aV\u4e95
aV\u5e08
aV\u76d8
aV\u9504
aV\u9619
aV\u65cb
aV\u5143
aV\u6d12
aV\u9edb
aV\u7701
aV\u8721
aV\u7b49
aV\u6ce3
aV\u7070
aV\u8e0f
aV\u7b2c
aV\u9635
aV\u971e
aV\u7434
aV\u5e03
aV\u745f
aV\u627f
aV\u6ca1
aV\u9b44
aV\u68f9
aV\u5e2d
aV\u50e7
aV\u6253
aV\u5b59
aV\u5b58
aV\u8c08
aV\u7ebf
aV\u67af
aV\u4f34
aV\u51cb
aV\u53cd
aV\u5b66
aV\u8d8a
aV\u5992
aV\u5ba6
aV\u5077
aV\u7bab
aV\u652f
aV\u5bd0
aV\u5185
aV\u6742
aV\u96f7
aV\u7cfb
aV\u621a
aV\u4e30
aV\u9ebb
aV\u846c
aV\u4ff1
aV\u5761
aV\u7f13
aV\u7855
aV\u9493
aV\u829c
aV\u5acc
aV\u886b
aV\u6dee
aV\u88c1
aV\u820d
aV\u6f84
aV\u517b
aV\u7693
aV\u94bf
aV\u70fd
aV\u6773
aV\u5792
aV\u669d
aV\u88d9
aV\u788e
aV\u4fac
aV\u733f
aV\u5e02
aV\u5824
aV\u743c
aV\u8fc1
aV\u5de2
aV\u8273
aV\u8885
aV\u804a
aV\u5229
aV\u5b9d
aV\u4e54
aV\u864f
aV\u5806
aV\u7f3a
aV\u620d
aV\u638c
aV\u79f0
aV\u6a90
aV\u57c3
aV\u9042
aV\u5df4
aV\u6d51
aV\u7384
aV\u6c11
aV\u5019
aV\u9497
aV\u6ca7
aV\u4e49
aV\u6572
aV\u7740
aV\u53e0
aV\u5974
aV\u840d
aV\u803b
aV\u5fc5
aV\u8212
aV\u4e25
aV\u5b81
aV\u7f6e
aV\u6d25
aV\u6027
aV\u9e43
aV\u901d
aV\u8d4f
aV\u529f
aV\u663c
aV\u9986
aV\u8bba
aV\u60e8
aV\u7406
aV\u6295
aV\u5a5a
aV\u8ff7
aV\u9e6d
aV\u5a7f
aV\u7532
aV\u51b5
aV\u7fc1
aV\u6ecb
aV\u8d62
aV\u6094
aV\u501f
aV\u6467
aV\u4ea1
aV\u53f3
aV\u65bc
aV\u5373
aV\u4f0a
aV\u6458
aV\u6edf
aV\u8986
aV\u4fca
aV\u5c3e
aV\u69db
aV\u53f7
aV\u7cbe
aV\u4e08
aV\u7fe9
aV\u9a7b
aV\u62b1
aV\u5524
aV\u7738
aV\u8d74
aV\u5723
aV\u9c81
aV\u68b3
aV\u533a
aV\u793e
aV\u5218
aV\u58a8
aV\u89de
aV\u8882
aV\u6d9b
aV\u8d70
aV\u7476
aV\u89c8
aV\u836f
aV\u5e10
aV\u6258
aV\u900f
aV\u5339
aV\u7f51
aV\u67ab
aV\u54cd
aV\u7537
aV\u895f
aV\u6735
aV\u62dc
aV\u52d2
aV\u67f4
aV\u780c
aV\u69ad
aV\u70e7
aV\u5012
aV\u9713
aV\u5c65
aV\u5531
aV\u532a
aV\u5bfa
aV\u5168
aV\u85b0
aV\u635f
aV\u9ea6
aV\u60b4
aV\u963b
aV\u6c57
aV\u55a7
aV\u7ee1
aV\u8feb
aV\u590f
aV\u70ac
aV\u8d3e
aV\u8966
aV\u6d69
aV\u51c0
aV\u8fd4
aV\u5316
aV\u5356
aV\u4e13
aV\u70ad
aV\u864e
aV\u90ed
aV\u6276
aV\u5947
aV\u4f53
aV\u906d
aV\u7f81
aV\u68a8
aV\u600e
aV\u4fa7
aV\u60f9
aV\u5e1d
aV\u620e
aV\u80a5
aV\u6da7
aV\u8d3c
aV\u6cfd
aV\u5a09
aV\u7ade
aV\u653e
aV\u9488
aV\u6267
aV\u8bf7
aV\u7a00
aV\u5c04
aV\u4ee3
aV\u6668
aV\u6d66
aV\u5386
aV\u6b21
aV\u82d1
aV\u6251
aV\u5306
aV\u70c8
aV\u6b65
aV\u65e6
aV\u5983
aV\u7089
aV\u8426
aV\u9e42
aV\u6bcf
aV\u8ba4
aV\u6839
aV\u8d4b
aV\u7b19
aV\u853d
aV\u803f
aV\u90f4
aV\u5c42
aV\u5feb
aV\u79ef
aV\u6194
aV\u90ca
aV\u822c
aV\u8bdd
aV\u5362
aV\u54b8
aV\u89c6
aV\u5ca9
aV\u7538
aV\u58d1
aV\u5764
aV\u9f7f
aV\u8102
aV\u79bd
aV\u6d4a
aV\u8700
aV\u52a0
aV\u7827
aV\u4f69
aV\u4e1e
aV\u7c2a
aV\u9e3e
aV\u66d9
aV\u6bdb
aV\u5360
aV\u754f
aV\u4ede
aV\u8fdd
aV\u53e5
aV\u5c90
aV\u5179
aV\u7b14
aV\u7b54
aV\u78be
aV\u964d
aV\u9a7f
aV\u7ffc
aV\u811a
aV\u636e
aV\u4e70
aV\u8f9b
aV\u6656
aV\u8fdb
aV\u5de7
aV\u9a7e
aV\u672b
aV\u5e0f
aV\u7267
aV\u6e85
aV\u6e1a
aV\u5026
aV\u51bb
aV\u8c19
aV\u7b9c
aV\u7bcc
aV\u675f
aV\u70e6
aV\u58f6
aV\u6789
aV\u83b1
aV\u903c
aV\u756a
aV\u7a0b
aV\u4f9b
aV\u7eb8
aV\u8857
aV\u9877
aV\u6687
aV\u6fdb
aV\u6c40
aV\u6d01
aV\u8109
aV\u9aa4
aV\u8033
aV\u73ca
aV\u5fb7
aV\u5938
aV\u53bf
aV\u9ecd
aV\u4f17
aV\u6e2d
aV\u6208
aV\u59e5
aV\u62e5
aV\u907f
aV\u5154
aV\u84b2
aV\u81f4
aV\u5ef6
aV\u5217
aV\u72ac
aV\u604b
aV\u5b87
aV\u7518
aV\u8d28
aV\u90c1
aV\u6076
aV\u8f94
aV\u6021
aV\u5bc6
aV\u4ea9
aV\u94c5
aV\u4e7e
aV\u82cf
aV\u614e
aV\u6cfb
aV\u70ed
aV\u5949
aV\u7b75
aV\u5c31
aV\u4e3d
aV\u8854
aV\u62e3
aV\u7b97
aV\u7c07
aV\u5b09
aV\u6e90
aV\u9c9c
aV\u7a33
aV\u654c
aV\u6e3a
aV\u5c1d
aV\u7b33
aV\u7cb2
aV\u901f
aV\u8363
aV\u7bad
aV\u7960
aV\u6d4e
aV\u76df
aV\u6392
aV\u9e2f
aV\u8d39
aV\u68e0
aV\u586b
aV\u5b97
aV\u541e
aV\u54c9
aV\u5272
aV\u82d2
aV\u6d63
aV\u51f0
aV\u7f00
aV\u7ec3
aV\u6868
aV\u76ca
aV\u61d2
aV\u6986
aV\u5e99
aV\u4fa3
aV\u5609
aV\u803d
aV\u5b85
aV\u6591
aV\u5e97
aV\u62d4
aV\u5deb
aV\u5c01
aV\u5a9a
aV\u853b
aV\u4f2b
aV\u65bd
aV\u8c37
aV\u94dc
aV\u602a
aV\u5348
aV\u7e41
aV\u6599
aV\u6e9f
aV\u5624
aV\u5bbd
aV\u73cd
aV\u82d7
aV\u7f6a
aV\u5951
aV\u78d0
aV\u5e7f
aV\u9910
aV\u9e2a
aV\u8e4a
aV\u8df3
aV\u5076
aV\u970f
aV\u6041
aV\u7fd4
aV\u8f89
aV\u62ab
aV\u6216
aV\u914c
aV\u500d
aV\u5fa8
aV\u76cf
aV\u86ee
aV\u94fa
aV\u8e87
aV\u9038
aV\u714e
aV\u816e
aV\u611a
aV\u9e67
aV\u59d3
aV\u6f5c
aV\u8f9c
aV\u662d
aV\u62da
aV\u9163
aV\u56e2
aV\u4ef2
aV\u8bc9
aV\u4e1b
aV\u5bbe
aV\u866b
aV\u987f
aV\u8681
aV\u6dc7
aV\u57cb
aV\u9e66
aV\u5f90
aV\u51a4
aV\u8fb0
aV\u8e44
aV\u82c7
aV\u4f8d
aV\u5352
aV\u9976
aV\u66b4
aV\u6bc2
aV\u8549
aV\u829d
aV\u77bf
aV\u5eb7
aV\u9165
aV\u566a
aV\u9876
aV\u83dc
aV\u696b
aV\u8346
aV\u62db
aV\u675e
aV\u83f1
aV\u51fd
aV\u7aa0
aV\u9ca4
aV\u6cc4
aV\u7eb9
aV\u5ce5
aV\u7792
aV\u8d2f
aV\u8e59
aV\u8475
aV\u5410
aV\u52bf
aV\u5f62
aV\u5be5
aV\u8bda
aV\u6f6d
aV\u8089
aV\u5ba4
aV\u52aa
aV\u9b4f
aV\u655b
aV\u5c61
aV\u68ee
aV\u9014
aV\u609f
aV\u8f6f
aV\u6cd7
aV\u6a58
aV\u6309
aV\u9a70
aV\u54bd
aV\u84dd
aV\u6770
aV\u6fc0
aV\u7c4d
aV\u8f95
aV\u5e9f
aV\u5c48
aV\u7f8a
aV\u63a2
aV\u89e6
aV\u6ce8
aV\u9704
aV\u9f9f
aV\u7634
aV\u5140
aV\u9e4a
aV\u51eb
aV\u6da8
aV\u6a3d
aV\u5eca
aV\u4eea
aV\u9887
aV\u6d95
aV\u8424
aV\u6b66
aV\u7280
aV\u7c1f
aV\u8fbe
aV\u5300
aV\u5b9b
aV\u8564
aV\u8bfb
aV\u51ac
aV\u5a31
aV\u683d
aV\u70c2
aV\u9e49
aV\u536b
aV\u878d
aV\u5199
aV\u79c9
aV\u716e
aV\u5a1f
aV\u4e27
aV\u6da6
aV\u972d
aV\u7e20
aV\u73af
aV\u8d50
aV\u6dfb
aV\u4f7c
aV\u8f67
aV\u5a75
aV\u6212
aV\u7a88
aV\u860b
aV\u5f31
aV\u6761
aV\u556d
aV\u4f10
aV\u505a
aV\u79df
aV\u65f7
aV\u670b
aV\u5219
aV\u65cc
aV\u7259
aV\u51cf
aV\u6b62
aV\u97f5
aV\u6f7a
aV\u63fd
aV\u66ff
aV\u4fef
aV\u633d
aV\u63d2
aV\u9006
aV\u74dc
aV\u7130
aV\u5d58
aV\u535c
aV\u79c0
aV\u56ca
aV\u8861
aV\u6414
aV\u8d3a
aV\u85d5
aV\u7b56
aV\u6c64
aV\u6311
aV\u5bcc
aV\u6837
aV\u5047
aV\u996d
aV\u8d24
aV\u544a
aV\u8d64
aV\u8713
aV\u82a6
aV\u8e0c
aV\u5999
aV\u592e
aV\u79be
aV\u7109
aV\u9898
aV\u9647
aV\u6ce0
aV\u5c16
aV\u6fb9
aV\u8354
aV\u8015
aV\u9009
aV\u5188
aV\u4e4d
aV\u6c61
aV\u5a18
aV\u6e20
aV\u4f36
aV\u76db
aV\u545c
aV\u5308
aV\u8bbf
aV\u7984
aV\u6b23
aV\u6eb6
aV\u873b
aV\u64d2
aV\u8d25
aV\u8bf8
aV\u5b54
aV\u6d89
aV\u8302
aV\u7eca
aV\u96cf
aV\u88db
aV\u95f9
aV\u5faa
aV\u5ce8
aV\u82ad
aV\u90e1
aV\u6784
aV\u548e
aV\u5811
aV\u574f
aV\u7f27
aV\u8404
aV\u548f
aV\u970e
aV\u6c9f
aV\u6db5
aV\u574e
aV\u9012
aV\u4e88
aV\u889c
aV\u51a2
aV\u60ac
aV\u63d6
aV\u4e73
aV\u5d14
aV\u6d9f
aV\u793c
aV\u8ff3
aV\u9ebe
aV\u98d2
aV\u55e4
aV\u5177
aV\u8702
aV\u6808
aV\u5893
aV\u5420
aV\u5ea7
aV\u8bb5
aV\u73ba
aV\u77e2
aV\u78e8
aV\u676d
aV\u6a0a
aV\u7a95
aV\u76cd
aV\u8e72
aV\u9178
aV\u5bff
aV\u8205
aV\u950b
aV\u768b
aV\u730e
aV\u4e9b
aV\u7edb
aV\u51a5
aV\u5854
aV\u602f
aV\u6f31
aV\u9701
aV\u978b
aV\u680a
aV\u718f
aV\u852c
aV\u5eb5
aV\u5bd3
aV\u5954
aV\u62d9
aV\u5ae9
aV\u656c
aV\u8f70
aV\u6c72
aV\u95f7
aV\u7c92
aV\u5323
aV\u75f4
aV\u4ec6
aV\u72ce
aV\u4f5b
aV\u5f7b
aV\u6c83
aV\u6106
aV\u7126
aV\u8eaf
aV\u6d2e
aV\u5189
aV\u86df
aV\u557e
aV\u8f9a
aV\u8e2f
aV\u8131
aV\u8473
aV\u83f2
aV\u72fc
aV\u6001
aV\u6006
aV\u8774
aV\u7a0d
aV\u7011
aV\u9aa2
aV\u4f2f
aV\u664f
aV\u6eda
aV\u9a8b
aV\u598d
aV\u8f99
aV\u7fb9
aV\u854a
aV\u97e9
aV\u8270
aV\u53a6
aV\u8c2f
aV\u70bc
aV\u66c8
aV\u72d0
aV\u5b8b
aV\u9a84
aV\u7b20
aV\u62b9
aV\u6574
aV\u7b0b
aV\u5ba0
aV\u6377
aV\u95ea
aV\u9977
aV\u8d81
aV\u62a4
aV\u5e0c
aV\u8eac
aV\u59b9
aV\u8d56
aV\u917e
aV\u6a84
aV\u621f
aV\u8335
aV\u5e37
aV\u90e8
aV\u659b
aV\u62b5
aV\u5ce1
aV\u5466
aV\u577c
aV\u679c
aV\u5d4b
aV\u83f4
aV\u5f77
aV\u7c0c
aV\u5fa1
aV\u593a
aV\u6746
aV\u614a
aV\u86db
aV\u7fe1
aV\u53e9
aV\u62c8
aV\u6e51
aV\u9965
aV\u6175
aV\u6606
aV\u7a0e
aV\u5ba3
aV\u7fa1
aV\u88c5
aV\u6363
aV\u76d1
aV\u903e
aV\u8c82
aV\u53a8
aV\u6249
aV\u594f
aV\u5353
aV\u8bcf
aV\u5e61
aV\u673a
aV\u72d7
aV\u5bdd
aV\u9080
aV\u7684
aV\u84b8
aV\u88f9
aV\u8910
aV\u9a9d
aV\u63b7
aV\u8036
aV\u67cf
aV\u5b9c
aV\u9a9a
aV\u69d0
aV\u9cde
aV\u63a1
aV\u8d2a
aV\u6162
aV\u7ef3
aV\u542f
aV\u693d
aV\u80cc
aV\u8dea
aV\u7281
aV\u7f08
aV\u989d
aV\u8c61
aV\u8360
aV\u6ee9
aV\u53eb
aV\u66f9
aV\u6e29
aV\u63f4
aV\u7f25
aV\u6177
aV\u72af
aV\u8fbd
aV\u76d7
aV\u9a74
aV\u6078
aV\u5305
aV\u539a
aV\u6325
aV\u6d74
aV\u5043
aV\u7edc
aV\u80f8
aV\u658b
aV\u521a
aV\u9642
aV\u9761
aV\u9b1f
aV\u56f4
aV\u5b5f
aV\u8461
aV\u566d
aV\u9185
aV\u8e85
aV\u4f26
aV\u70af
aV\u9756
aV\u5203
aV\u5b9e
aV\u6cbc
aV\u8bbe
aV\u5145
aV\u664b
aV\u701a
aV\u6263
aV\u8165
aV\u73ee
aV\u887f
aV\u6124
aV\u7f30
aV\u82b9
aV\u6ede
aV\u64cd
aV\u5fe0
aV\u8d38
aV\u80e5
aV\u82bd
aV\u6676
aV\u69ff
aV\u8e51
aV\u7ff0
aV\u7981
aV\u8010
aV\u79c1
aV\u9e44
aV\u52c7
aV\u68cb
aV\u6df9
aV\u5e84
aV\u5207
aV\u8111
aV\u531d
aV\u73b2
aV\u51c6
aV\u7387
aV\u960a
aV\u731c
aV\u63a7
aV\u64a9
aV\u6cb9
aV\u62bd
aV\u8150
aV\u745e
aV\u9a82
aV\u4f0f
aV\u60a6
aV\u5347
aV\u6367
aV\u6469
aV\u9a6d
aV\u6bd5
aV\u677f
aV\u4f0e
aV\u8587
aV\u9648
aV\u607c
aV\u8c0f
aV\u592d
aV\u51b2
aV\u7535
aV\u7a74
aV\u88cc
aV\u9ed8
aV\u6d65
aV\u87fe
aV\u9730
aV\u86a9
aV\u60bd
aV\u6350
aV\u67d3
aV\u86d9
aV\u5370
aV\u85ff
aV\u7230
aV\u6127
aV\u7d2f
aV\u91dc
aV\u81fc
aV\u66a7
aV\u5cab
aV\u6b3a
aV\u9274
aV\u5f82
aV\u7a84
aV\u9088
aV\u8c0b
aV\u8315
aV\u969c
aV\u6551
aV\u71ce
aV\u8bfa
aV\u4ecd
aV\u84d1
aV\u75db
aV\u5f20
aV\u53df
aV\u8d60
aV\u6168
aV\u5acb
aV\u73d1
aV\u7eab
aV\u7eeb
aV\u5a03
aV\u5d82
aV\u9884
aV\u75b2
aV\u91ca
aV\u6155
aV\u667b
aV\u6691
aV\u5e16
aV\u76b1
aV\u853c
aV\u9646
aV\u806a
aV\u5ced
aV\u5269
aV\u708a
aV\u6d8c
aV\u4fa0
aV\u63a8
aV\u9020
aV\u7a3c
aV\u7fd5
aV\u9b12
aV\u8e74
aV\u9a7c
aV\u6684
aV\u900b
aV\u53a2
aV\u9047
aV\u80c6
aV\u82ac
aV\u51b6
aV\u9f8a
aV\u9ed4
aV\u64d8
aV\u67da
aV\u5d69
aV\u51f6
aV\u7ba7
aV\u80c1
aV\u7f54
aV\u55e3
aV\u9897
aV\u62ed
aV\u67ef
aV\u68f1
aV\u6d3e
aV\u5fff
aV\u8605
aV\u8096
aV\u98a6
aV\u7eaa
aV\u7a3d
aV\u5409
aV\u67c4
aV\u56d7
aV\u94ce
aV\u695b
aV\u8ff4
aV\u56fa
aV\u851a
aV\u4f1e
aV\u7b26
aV\u8eb2
aV\u953a
aV\u8e48
aV\u704c
aV\u98e7
aV\u8df5
aV\u6c74
aV\u9afb
aV\u6807
aV\u6b86
aV\u6f09
aV\u6396
aV\u7f29
aV\u7ea8
aV\u822b
aV\u9739
aV\u7a3b
aV\u7c3f
aV\u914d
aV\u7b51
aV\u7565
aV\u69f2
aV\u8d75
aV\u5c7f
aV\u6e24
aV\u57a3
aV\u54a5
aV\u7f28
aV\u8d34
aV\u64c5
aV\u564e
aV\u845a
aV\u72e1
aV\u54e5
aV\u7ee9
aV\u60ed
aV\u6c13
aV\u866e
aV\u8f88
aV\u7425
aV\u7aa6
aV\u5639
aV\u8e49
aV\u67d8
aV\u7261
aV\u90e2
aV\u5ae6
aV\u836b
aV\u987d
aV\u8083
aV\u748b
aV\u62ac
aV\u7f12
aV\u5b95
aV\u5d26
aV\u87ad
aV\u662c
aV\u8556
aV\u85c1
aV\u8237
aV\u6d46
aV\u5c50
aV\u6556
aV\u835a
aV\u8bf5
aV\u7aff
aV\u6b8a
aV\u62c4
aV\u8e47
aV\u96cc
aV\u5fd2
aV\u5ad4
aV\u60d8
aV\u94e0
aV\u6cf0
aV\u9677
aV\u7c7b
aV\u6500
aV\u758b
aV\u5c91
aV\u9c91
aV\u5993
aV\u8fb1
aV\u5b5d
aV\u65ab
aV\u8d30
aV\u62c5
aV\u504e
aV\u8765
aV\u70f9
aV\u8401
aV\u7b94
aV\u8717
aV\u629a
aV\u5f27
aV\u632f
aV\u6a35
aV\u5e3d
aV\u8245
aV\u4fdc
aV\u5ce6
aV\u6854
aV\u8283
aV\u7814
aV\u7704
aV\u7b3e
aV\u6e0a
aV\u71e5
aV\u6f66
aV\u6874
aV\u750d
aV\u5c27
aV\u59aa
aV\u6db2
aV\u6243
aV\u6145
aV\u80c4
aV\u89ca
aV\u62d8
aV\u9ece
aV\u5b69
aV\u88f4
aV\u77f6
aV\u72f8
aV\u7b93
aV\u7fd8
aV\u83b7
aV\u754c
aV\u9164
aV\u62e6
aV\u9676
aV\u59ff
aV\u8303
aV\u8482
aV\u809a
aV\u9621
aV\u97a0
aV\u94a2
aV\u7d27
aV\u7ba8
aV\u69b4
aV\u9f3b
aV\u59d4
aV\u637b
aV\u9661
aV\u7ee6
aV\u846d
aV\u8ff0
aV\u8981
aV\u8f85
aV\u5e8f
aV\u5d0e
aV\u821c
aV\u8bad
aV\u5c38
aV\u553e
aV\u8fc5
aV\u94d3
aV\u7410
aV\u50fb
aV\u6d19
aV\u5f25
aV\u7a37
aV\u75be
aV\u68c0
aV\u9e4f
aV\u7f65
aV\u5ffa
aV\u9091
aV\u962a
aV\u80b1
aV\u6734
aV\u8dc3
aV\u98e1
aV\u5960
aV\u5a62
aV\u8b6c
aV\u6fef
aV\u51fb
aV\u5e7a
aV\u747e
aV\u5b8c
aV\u6d98
aV\u6635
aV\u7f1f
aV\u723d
aV\u6841
aV\u4fc4
aV\u594b
aV\u6dd8
aV\u4f6f
aV\u6cee
aV\u61f0
aV\u5efa
aV\u527d
aV\u8d85
aV\u9f0e
aV\u7391
aV\u5112
aV\u5c24
aV\u82df
aV\u973e
aV\u954c
aV\u8fd9
aV\u6d5a
aV\u5be1
aV\u5962
aV\u5de5
aV\u9668
aV\u5b93
aV\u94ff
aV\u6a80
aV\u5192
aV\u8331
aV\u8c49
aV\u523b
aV\u7fce
aV\u5351
aV\u4fee
aV\u5f79
aV\u517d
aV\u8469
aV\u788d
aV\u5793
aV\u62fe
aV\u809d
aV\u659f
aV\u68ad
aV\u67b3
aV\u9179
aV\u8c5a
aV\u665e
aV\u71e7
aV\u9eea
aV\u5211
aV\u8f98
aV\u8bc0
aV\u88c2
aV\u7ece
aV\u9753
aV\u86de
aV\u4ed1
aV\u7de4
aV\u6f02
aV\u9a8f
aV\u629f
aV\u78a3
aV\u86c7
aV\u94c0
aV\u5254
aV\u67dd
aV\u5c60
aV\u7566
aV\u6ceb
aV\u4fed
aV\u6912
aV\u5ef7
aV\u9d76
aV\u94ed
aV\u7c0b
aV\u65c1
aV\u6a2f
aV\u5939
aV\u65c6
aV\u6dd6
aV\u88d8
aV\u66dc
aV\u5b65
aV\u9169
aV\u4eec
aV\u82f4
aV\u76fc
aV\u871c
aV\u7e22
aV\u722a
aV\u8baf
aV\u81b3
aV\u8446
aV\u6148
aV\u4fd7
aV\u77e7
aV\u6deb
aV\u683c
aV\u5978
aV\u707e
aV\u73ea
aV\u631f
aV\u609e
aV\u5029
aV\u4e48
aV\u6c41
aV\u8d4a
aV\u62ca
aV\u7255
aV\u8859
aV\u74e6
aV\u7069
aV\u5ed3
aV\u8471
aV\u7afa
aV\u6389
aV\u5195
aV\u641c
aV\u9e20
aV\u74a7
aV\u7726
aV\u53a9
aV\u68af
aV\u5537
aV\u98cf
aV\u835e
aV\u5ae3
aV\u8b66
aV\u6670
aV\u8572
aV\u91ed
aV\u9711
aV\u7ea0
aV\u7329
aV\u91aa
aV\u5155
aV\u9aa5
aV\u66f0
aV\u7b79
aV\u000a
aV\u9c8d
aV\u798f
aV\u7ea1
aV\u52a9
aV\u8d2c
aV\u9893
aV\u8944
aV\u85c7
aV\u8018
aV\u5cb1
aV\u6b58
aV\u86f1
aV\u54fd
aV\u71ff
aV\u6388
aV\u7194
aV\u7825
aV\u7eb6
aV\u7bb8
aV\u573b
aV\u89c4
aV\u7ecd
aV\u5055
aV\u85dc
aV\u82de
aV\u5b63
aV\u8671
aV\u9931
aV\u7d77
aV\u7a79
aV\u95fc
aV\u9000
aV\u7483
aV\u5f0a
aV\u820c
aV\u6c93
aV\u5a1c
aV\u67a5
aV\u6e34
aV\u8438
aV\u4ebf
aV\u94c3
aV\u9644
aV\u6cd3
aV\u8fd5
aV\u575a
aV\u6c68
aV\u73ed
aV\u556e
aV\u4eff
aV\u9c88
aV\u7bc6
aV\u87ba
aV\u5141
aV\u5443
aV\u514d
aV\u4ed4
aV\u5adc
aV\u9b51
aV\u8463
aV\u80ed
aV\u80a1
aV\u742e
aV\u5a32
aV\u84b9
aV\u69bb
aV\u828a
aV\u96c5
aV\u7bc7
aV\u5f8c
aV\u4ed5
aV\u7c38
aV\u5c5e
aV\u72ed
aV\u9970
aV\u7503
aV\u9886
aV\u7fc5
aV\u8c29
aV\u9041
aV\u7f5f
aV\u6b67
aV\u8de8
aV\u53ec
aV\u9a9b
aV\u751a
aV\u7c9f
aV\u8c41
aV\u8fa9
aV\u7bb1
aV\u7eb3
aV\u7db5
aV\u8336
aV\u67b9
aV\u8839
aV\u4ed3
aV\u653b
aV\u6fe9
aV\u74ef
aV\u7a70
aV\u810d
aV\u808c
aV\u9017
aV\u8525
aV\u8865
aV\u795d
aV\u8be6
aV\u6ee8
aV\u70ec
aV\u77ee
aV\u8f93
aV\u75af
aV\u5544
aV\u7a46
aV\u5ec9
aV\u5236
aV\u9e5e
aV\u6062
aV\u85e9
aV\u5201
aV\u5703
aV\u5996
aV\u80a2
aV\u65a4
aV\u6b3b
aV\u8d3f
aV\u73c0
aV\u65cf
aV\u7b5b
aV\u85e4
aV\u8fe8
aV\u5bf0
aV\u8679
aV\u9083
aV\u5e87
aV\u8c10
aV\u6e2f
aV\u9c9b
aV\u4ea7
aV\u5389
aV\u6cbb
aV\u664c
aV\u6dd1
aV\u9cb8
aV\u59fb
aV\u8d66
aV\u5df1
aV\u9003
aV\u6c6a
aV\u5c97
aV\u7f16
aV\u670d
aV\u916c
aV\u7617
aV\u9119
aV\u7f1d
aV\u7ec4
aV\u8247
aV\u6baa
aV\u56ac
aV\u5bc7
aV\u6e7e
aV\u7099
aV\u9e9d
aV\u74f6
aV\u7cb1
aV\u6f88
aV\u8138
aV\u6ebd
aV\u71c3
aV\u6b54
aV\u77d7
aV\u8662
aV\u5267
aV\u9988
aV\u98d0
aV\u9a8a
aV\u7f9c
aV\u589e
aV\u6ca6
aV\u752b
aV\u90ae
aV\u9899
aV\u7441
aV\u814a
aV\u5a77
aV\u7f47
aV\u830e
aV\u589f
aV\u732e
aV\u64b7
aV\u9640
aV\u7cc7
aV\u634e
aV\u9e70
aV\u5ebe
aV\u5e1b
aV\u4e1a
aV\u80a4
aV\u6fa6
aV\u6339
aV\u81ba
aV\u5243
aV\u59ca
aV\u766b
aV\u9026
aV\u7ef0
aV\u8bfe
aV\u5085
aV\u8c12
aV\u9616
aV\u63a3
aV\u6cbd
aV\u824e
aV\u6ed1
aV\u82f9
aV\u5d07
aV\u4e11
aV\u6994
aV\u8ba8
aV\u8f73
aV\u54c2
aV\u82ce
aV\u4fd0
aV\u6855
aV\u50da
aV\u54fa
aV\u8f84
aV\u6577
aV\u8279
aV\u909b
aV\u7f1a
aV\u9332
aV\u83bd
aV\u5448
aV\u574a
aV\u7956
aV\u8fe5
aV\u7c98
aV\u701b
aV\u5c9b
aV\u6170
aV\u6349
aV\u8dce
aV\u8be2
aV\u9f8c
aV\u8155
aV\u8f8f
aV\u8695
aV\u6714
aV\u5e1a
aV\u8da3
aV\u6bb5
aV\u81bb
aV\u6c4e
aV\u85d3
aV\u9774
aV\u7409
aV\u8b8c
aV\u8513
aV\u8292
aV\u5e9a
aV\u8821
aV\u7cae
aV\u7533
aV\u52b2
aV\u6b37
aV\u5e45
aV\u62cf
aV\u98d6
aV\u5dd8
aV\u575f
aV\u8fe4
aV\u4fe8
aV\u8c79
aV\u817b
aV\u5556
aV\u7897
aV\u5533
aV\u84bf
aV\u7bc1
aV\u5a40
aV\u5dc5
aV\u83d1
aV\u7762
aV\u5fd9
aV\u6be1
aV\u8a60
aV\u8366
aV\u53f1
aV\u96f3
aV\u95f5
aV\u97ed
aV\u690d
aV\u979e
aV\u85aa
aV\u7331
aV\u60bc
aV\u6555
aV\u5857
aV\u7a81
aV\u7206
aV\u540a
aV\u888d
aV\u711c
aV\u52b1
aV\u6861
aV\u6052
aV\u5f58
aV\u618e
aV\u86e9
aV\u7574
aV\u6f78
aV\u5a01
aV\u7b80
aV\u6390
aV\u9a96
aV\u731b
aV\u519c
aV\u9649
aV\u884d
aV\u69cc
aV\u63d0
aV\u59ec
aV\u73f0
aV\u5773
aV\u5475
aV\u4ff8
aV\u837b
aV\u5883
aV\u5a04
aV\u4e56
aV\u8f8d
aV\u5d16
aV\u579d
aV\u5fad
aV\u5c40
aV\u4ef7
aV\u817e
aV\u7586
aV\u5f99
aV\u6294
aV\u5919
aV\u63aa
aV\u7f2d
aV\u673d
aV\u9b45
aV\u69ce
aV\u545b
aV\u6491
aV\u7a1a
aV\u80a9
aV\u822a
aV\u7ead
aV\u7f2c
aV\u51b3
aV\u9632
aV\u7334
aV\u524a
aV\u705e
aV\u60e9
aV\u7eed
aV\u503c
aV\u9672
aV\u85fb
aV\u877c
aV\u9707
aV\u6d0b
aV\u728a
aV\u6f8c
aV\u6215
aV\u5f17
aV\u5c96
aV\u6ea2
aV\u859c
aV\u7235
aV\u7c41
aV\u7747
aV\u9e7f
aV\u77dc
aV\u84e6
aV\u7a83
aV\u7c97
aV\u5b99
aV\u8d22
aV\u575e
aV\u843c
aV\u914a
aV\u4e60
aV\u6821
aV\u7b6e
aV\u57e9
aV\u5786
aV\u8c8c
aV\u8925
aV\u96b0
aV\u64bc
aV\u63be
aV\u58c4
aV\u8d4d
aV\u955d
aV\u8369
aV\u62e8
aV\u9e6b
aV\u6b79
aV\u63fe
aV\u8f8b
aV\u781a
aV\u719f
aV\u73b3
aV\u6b38
aV\u5f40
aV\u95c7
aV\u52c9
aV\u8d4c
aV\u6750
aV\u6c0f
aV\u62e9
aV\u5d6c
aV\u50f5
aV\u6df7
aV\u5507
aV\u94b2
aV\u8e90
aV\u9547
aV\u96c6
aV\u8651
aV\u775b
aV\u94f2
aV\u68fa
aV\u5065
a.