(lp1
V\u3002
aV\u7684
aV\u6211
aV\u4f60
aV\u5728
aV\u4e00
aV\u4e0d
aV\u662f
aV\u6709
aV\u7231
aV\u6765
aV\u4e86
aV\u4eba
aV\u8bf4
aV\u8fd9
aV\u8fc7
aV\u4e0a
aV\u90a3
aV\u7740
aV\u60f3
aV\u5f00
aV\u5c31
aV\u98ce
aV\u60c5
aV\u5bf9
aV\u4e0b
aV\u5929
aV\u8fd8
aV\u5230
aV\u56de
aV\u91cc
aV\u7528
aV\u90fd
aV\u5fc3
aV\u4eec
aV\u65e0
aV\u5730
aV\u8c01
aV\u4e2a
aV\u5f88
aV\u8981
aV\u4e48
aV\u7b11
aV\u9762
aV\u50cf
aV\u53bb
aV\u624b
aV\u4e3a
aV\u65b9
aV\u770b
aV\u6ca1
aV\u5982
aV\u597d
aV\u8fdc
aV\u4e2d
aV\u4f1a
aV\u79bb
aV\u5374
aV\u518d
aV\u88ab
aV\u51fa
aV\u53ea
aV\u8272
aV\u79cd
aV\u9053
aV\u6210
aV\u5f97
aV\u5b50
aV\u8ddf
aV\u4f24
aV\u7b49
aV\u8d70
aV\u5149
aV\u4e8b
aV\u8d77
aV\u767d
aV\u5e74
aV\u5916
aV\u7ecf
aV\u611f
aV\u95f4
aV\u591a
aV\u8eab
aV\u65f6
aV\u4ee5
aV\u6cea
aV\u542c
aV\u6c34
aV\u82b1
aV\u4ec0
aV\u58f0
aV\u5df2
aV\u7ed9
aV\u6ee1
aV\u573a
aV\u5c0f
aV\u7f8e
aV\u96e8
aV\u6708
aV\u773c
aV\u81ea
aV\u8bdd
aV\u540e
aV\u592a
aV\u96be
aV\u59cb
aV\u600e
aV\u5b89
aV\u8f7b
aV\u6837
aV\u4ece
aV\u98d8
aV\u843d
aV\u524d
aV\u4ed6
aV\u800c
aV\u8138
aV\u9759
aV\u5c06
aV\u53ef
aV\u8ba9
aV\u5206
aV\u8001
aV\u76f4
aV\uff0c
aV\u5168
aV\u5ff5
aV\u539f
aV\u6d77
aV\u4e5f
aV\u5411
aV\u6c14
aV\u660e
aV\u591c
aV\u8bb0
aV\u7a7a
aV\u80fd
aV\u751f
aV\u8457
aV\u6c99
aV\u53d1
aV\u5bb6
aV\u5566
aV\u4e16
aV\u5934
aV\u6253
aV\u5e95
aV\u5927
aV\u5f20
aV\u5c71
aV\u53d8
aV\u771f
aV\u5fae
aV\u5f53
aV\u4e9b
aV\u753b
aV\u8336
aV\u6162
aV\u522b
aV\u6cd5
aV\u795e
aV\u8868
aV\u5b9a
aV\u5b83
aV\u91cd
aV\u8f6c
aV\u5199
aV\u7a97
aV\u6c38
aV\u653e
aV\u5feb
aV\u53c8
aV\u7136
aV\u65ad
aV\u900f
aV\u52a8
aV\u7559
aV\u9f99
aV\u9ed8
aV\u77e5
aV\u51e0
aV\u6d41
aV\u5979
aV\u4f55
aV\u5fc6
aV\u5343
aV\u5b57
aV\u4e4b
aV\u89c1
aV\u957f
aV\u7ea2
aV\u4fe1
aV\u5473
aV\u5531
aV\u7237
aV\u76f8
aV\u8857
aV\u8def
aV\u5355
aV\u679c
aV\u5317
aV\u68a6
aV\u505a
aV\u89e3
aV\u5173
aV\u4f20
aV\u6240
aV\u7ed3
aV\u6c5f
aV\u4e09
aV\u70b9
aV\u6700
aV\u53e3
aV\u5f39
aV\u9752
aV\u610f
aV\u5bb9
aV\u88c5
aV\u671b
aV\u5e73
aV\u70ed
aV\u5df1
aV\u6bd4
aV\u5f2f
aV\u529b
aV\u8fb9
aV\u73b0
aV\u627e
aV\u6bb5
aV\u9ed1
aV\u6389
aV\u9519
aV\u6f14
aV\u53eb
aV\u98de
aV\u5f71
aV\u9a6c
aV\u7247
aV\u53cc
aV\u8d8a
aV\u8fdb
aV\u62f3
aV\u513f
aV\u6e29
aV\u54ed
aV\u5634
aV\u5207
aV\u4e8e
aV\u9999
aV\u559d
aV\u8fde
aV\u7403
aV\u4e1c
aV\u6df1
aV\u56e0
aV\u8a00
aV\u9192
aV\u4eae
aV\u628a
aV\u6f2b
aV\u95ee
aV\u7ec8
aV\u9ec4
aV\u6b4c
aV\u884c
aV\u4e60
aV\u8df3
aV\u57ce
aV\u89c9
aV\u53e4
aV\u540c
aV\u6218
aV\u8f66
aV\u4e71
aV\u6e05
aV\u601d
aV\u673a
aV\u6811
aV\u65e5
aV\u89d2
aV\u76d8
aV\u5c18
aV\u6a21
aV\u5899
aV\u65e7
aV\u7ebf
aV\u5e94
aV\u8282
aV\u61c2
aV\u51b7
aV\u548c
aV\u5f3a
aV\u5931
aV\u706b
aV\u5200
aV\u5316
aV\u4e50
aV\u591f
aV\u5f85
aV\u6b22
aV\u672a
aV\u7eaf
aV\u505c
aV\u4ee3
aV\u97f3
aV\u82e6
aV\u66fe
aV\u8be5
aV\u9884
aV\u719f
aV\u5f80
aV\u559c
aV\u6000
aV\u5438
aV\u6545
aV\u5bfb
aV\u65c1
aV\u53e5
aV\u7b14
aV\u754c
aV\u540d
aV\u5b63
aV\u547d
aV\u604b
aV\u53d7
aV\u6625
aV\u8c61
aV\u5019
aV\u6562
aV\u5bde
aV\u6b62
aV\u53f0
aV\u6b64
aV\u5a18
aV\u70df
aV\u7ad9
aV\u8bb8
aV\u968f
aV\u6cb3
aV\u666f
aV\u6c89
aV\u7ed5
aV\u7eaa
aV\u4eb2
aV\u7a7f
aV\u6797
aV\u8bed
aV\u8c03
aV\u9694
aV\u661f
aV\u523b
aV\u5012
aV\u60b2
aV\u5426
aV\u788e
aV\u6572
aV\u6447
aV\u8349
aV\u62c9
aV\u84dd
aV\u6536
aV\u4e24
aV\u7ec3
aV\u7535
aV\u8d4f
aV\u6068
aV\u5c81
aV\u51b3
aV\u6b23
aV\u6b63
aV\u5b66
aV\u53cb
aV\u836f
aV\u57cb
aV\u966a
aV\u5b8c
aV\u4e45
aV\u74f6
aV\u547c
aV\u624d
aV\u6d6a
aV\u6b7b
aV\u7adf
aV\u6d3b
aV\u5973
aV\u5185
aV\u6761
aV\u7b2c
aV\u6b8b
aV\u62ff
aV\u6b65
aV\u7275
aV\u6094
aV\u8f6e
aV\u6015
aV\u822c
aV\u6643
aV\u4f5c
aV\u5c11
aV\u811a
aV\u7d27
aV\u8840
aV\u96ea
aV\u6574
aV\u65b0
aV\u62e5
aV\u798f
aV\u7c73
aV\u5357
aV\u6563
aV\u683c
aV\u6b66
aV\u8fbe
aV\u80cc
aV\u620f
aV\u4e3d
aV\u67aa
aV\u5bc2
aV\u5dee
aV\u58c1
aV\u521d
aV\u51b0
aV\u7434
aV\u6c64
aV\u6027
aV\u7d2f
aV\u5fd8
aV\u7530
aV\u6bcf
aV\u6ce1
aV\u4e61
aV\u5047
aV\u5e7f
aV\u79fb
aV\u9ebd
aV\u7b54
aV\u60ef
aV\u5e26
aV\u7ffb
aV\u8bd7
aV\u6f02
aV\u679d
aV\u5f62
aV\u6570
aV\u66f2
aV\u9690
aV\u6587
aV\u594f
aV\u5ef6
aV\u575a
aV\u6539
aV\u9001
aV\u63a5
aV\u7edd
aV\u8a93
aV\u4e66
aV\u670b
aV\u988a
aV\u62bd
aV\u6e38
aV\u9633
aV\u4e0e
aV\u4e39
aV\u6591
aV\u534a
aV\u4f4d
aV\u5bc4
aV\u7cd6
aV\u56db
aV\u6751
aV\u8c22
aV\u955c
aV\u613f
aV\u724c
aV\u89c6
aV\u6559
aV\u53f7
aV\u6c49
aV\u6301
aV\u4f9d
aV\u6f47
aV\u7ffc
aV\u606f
aV\u7ea6
aV\u82cd
aV\u96f6
aV\u95e8
aV\u62db
aV\u6f6e
aV\u7eb8
aV\u6daf
aV\u54ea
aV\u671d
aV\u5ea6
aV\u9ea6
aV\u59e5
aV\u5403
aV\u638c
aV\u989c
aV\u5341
aV\u516c
aV\u800d
aV\u521a
aV\u94c1
aV\u6d12
aV\u4e91
aV\u5bb3
aV\u79cb
aV\u7ec6
aV\u7259
aV\u52c7
aV\u65e9
aV\u4ea4
aV\u51c6
aV\u53f2
aV\u8513
aV\u554a
aV\u5386
aV\u68cd
aV\u67d3
aV\u5370
aV\u5f03
aV\u6e56
aV\u5c40
aV\u4e8c
aV\u53ca
aV\u7406
aV\u75db
aV\u653b
aV\u64e6
aV\u901f
aV\u775b
aV\u529e
aV\u65bc
aV\u4f0a
aV\u5c3e
aV\u5439
aV\u72b6
aV\u8003
aV\u91ce
aV\u672c
aV\u6401
aV\u4e5d
aV\u5e7d
aV\u5f26
aV\u534e
aV\u8ddd
aV\u9c7c
aV\u5165
aV\u9760
aV\u8005
aV\u6696
aV\u9065
aV\u665a
aV\u5f25
aV\u5cb8
aV\u96d5
aV\u8170
aV\u7fa4
aV\u62b1
aV\u7ba1
aV\u9152
aV\u4e03
aV\u89c2
aV\u517d
aV\u62c6
aV\u7167
aV\u5fcd
aV\u8bda
aV\u5b64
aV\u821e
aV\u590f
aV\u9e1f
aV\u5c5e
aV\u72c2
aV\u75af
aV\u65cf
aV\u732b
aV\u5440
aV\u8ffd
aV\u7834
aV\u9c9c
aV\u5b9e
aV\u4e3b
aV\u654c
aV\u5272
aV\u571f
aV\u4f4f
aV\u677f
aV\u7897
aV\u8eba
aV\u6728
aV\u6ce5
aV\u7b80
aV\u50b2
aV\u5f02
aV\u9a84
aV\u627f
aV\u5e02
aV\u622a
aV\u8d62
aV\u91ca
aV\u5b58
aV\u5269
aV\u7075
aV\u6599
aV\u5176
aV\u5f15
aV\u5f55
aV\u6d88
aV\u53f6
aV\u6bdb
aV\u8584
aV\u59d3
aV\u5fe7
aV\u7761
aV\u582a
aV\u72b9
aV\u54cd
aV\u91cf
aV\u51e4
aV\u5267
aV\u5f0f
aV\u70e7
aV\u5e78
aV\u6d45
aV\u7977
aV\u5e0c
aV\u7531
aV\u8033
aV\u5c4b
aV\u90e8
aV\u77a7
aV\u526a
aV\u5f8c
aV\u8fc1
aV\u7269
aV\u7483
aV\u8c13
aV\u5217
aV\u7eb5
aV\u62e2
aV\u4f7f
aV\u4e53
aV\u4e3e
aV\u71ac
aV\u85cf
aV\u5305
aV\u65cb
aV\u4e52
aV\u56ed
aV\u5e72
aV\u5766
aV\u4efb
aV\u8fd0
aV\u897f
aV\u9b42
aV\u8352
aV\u7070
aV\u8111
aV\u6392
aV\u7b97
aV\u731c
aV\u684c
aV\u975e
aV\u5e03
aV\u6b21
aV\u9047
aV\u725b
aV\u7a81
aV\u7f18
aV\u63d0
aV\u6028
aV\u5148
aV\u5c01
aV\u6d0b
aV\u7f57
aV\u54b1
aV\u6e21
aV\u6302
aV\u626c
aV\u7eff
aV\u8bb2
aV\u6ef4
aV\u51cb
aV\u865a
aV\u6001
aV\u7eea
aV\u676f
aV\u704c
aV\u72e0
aV\u9986
aV\u4e49
aV\u7261
aV\u533a
aV\u7fbd
aV\u6848
aV\u5f92
aV\u9ebc
aV\u7c7b
aV\u89c8
aV\u6084
aV\u6597
aV\u8299
aV\u8f9b
aV\u64ad
aV\u5c3d
aV\u7279
aV\u96fe
aV\u66b4
aV\u66f4
aV\u72fc
aV\u6307
aV\u5821
aV\u90a6
aV\u54bf
aV\u4ed8
aV\u6842
aV\u767e
aV\u543b
aV\u9e20
aV\u55a7
aV\u5750
aV\u5492
aV\u90aa
aV\u9000
aV\u5e9f
aV\u660f
aV\u60a0
aV\u738b
aV\u6ce8
aV\u9634
aV\u80e1
aV\u820d
aV\u51c0
aV\u6d53
aV\u516b
aV\u4e13
aV\u9057
aV\u53d6
aV\u8f93
aV\u614c
aV\u9996
aV\u706d
aV\u76ee
aV\u6325
aV\u62a5
aV\u7948
aV\u63cf
aV\u60f9
aV\u54d7
aV\u98df
aV\u9a73
aV\u901a
aV\u82bd
aV\u5408
aV\u888b
aV\u68cb
aV\u70db
aV\u5e84
aV\u67d4
aV\u51f0
aV\u6b20
aV\u5883
aV\u6de1
aV\u996e
aV\u9898
aV\u8bfa
aV\u6dcb
aV\u8ff7
aV\u8ba4
aV\u6839
aV\u6d4b
aV\u9ad8
aV\u9646
aV\u79ef
aV\u5507
aV\u4ef6
aV\u8c08
aV\u9020
aV\u6e34
aV\u53cd
aV\u9664
aV\u95f9
aV\u6101
aV\u5bd2
aV\u8499
aV\u5578
aV\u7cbe
aV\u73cd
aV\u4eca
aV\u5e55
aV\u52a0
aV\u79d2
aV\u5077
aV\u68ad
aV\u6216
aV\u73bb
aV\u5360
aV\u904d
aV\u6697
aV\u5f52
aV\u6cdb
aV\u7cfb
aV\u6284
aV\u4e07
aV\u77f3
aV\u8c46
aV\u9662
aV\u8eb2
aV\u9e3d
aV\u94f6
aV\u4f46
aV\u53f9
aV\u5915
aV\u6298
aV\u6d4f
aV\u5b69
aV\u95f7
aV\u60da
aV\u91d1
aV\u6735
aV\u51fb
aV\u4e9a
aV\u8d85
aV\u5e38
aV\u7acb
aV\u4e58
aV\u6982
aV\u8f83
aV\u4f18
aV\u88ad
aV\u82f1
aV\u7a76
aV\u88c2
aV\u96a7
aV\u4eac
aV\u73ca
aV\u8089
aV\u8baf
aV\u54d1
aV\u56fd
aV\u68ee
aV\u6089
aV\u635e
aV\u7626
aV\u5df7
aV\u5229
aV\u917f
aV\u52fe
aV\u4f2a
aV\u952e
aV\u5986
aV\u4ed4
aV\u72ec
aV\u6e7f
aV\u80a1
aV\u96c5
aV\u5565
aV\u50bb
aV\u6b27
aV\u6eaa
aV\u9e26
aV\u5c34
aV\u6a90
aV\u6321
aV\u57c3
aV\u745a
aV\u4e7e
aV\u552f
aV\u604d
aV\u8679
aV\u82cf
aV\u77ed
aV\u670d
aV\u4fa7
aV\u7f13
aV\u4efd
aV\u77ac
aV\u56f4
aV\u5143
aV\u51ac
aV\u711a
aV\u6620
aV\u8fd1
aV\u5f31
aV\u522e
aV\u624e
aV\u5b88
aV\u51c4
aV\u776b
aV\u5146
aV\u8bcd
aV\u6050
aV\u8654
aV\u58eb
aV\u603b
aV\u5ea7
aV\u9006
aV\u519b
aV\u54c9
aV\u79c0
aV\u8bd5
aV\u51dd
aV\u607c
aV\u558a
aV\u6311
aV\u541f
aV\u8d25
aV\u544a
aV\u6768
aV\u5a01
aV\u5e97
aV\u6c60
aV\u59ae
aV\u6295
aV\u5c16
aV\u971c
aV\u5632
aV\u7eed
aV\u9009
aV\u6ea2
aV\u5c2c
aV\u8054
aV\u8427
aV\u94dc
aV\u7bee
aV\u602a
aV\u52c9
aV\u5348
aV\u53f3
aV\u6d8c
aV\u6492
aV\u6ce2
aV\u8000
aV\u6297
aV\u4fb5
aV\u59d1
aV\u6458
aV\u51e1
aV\u5d29
aV\u5ca9
aV\u80c1
aV\u5076
aV\u574f
aV\u5c14
aV\u851a
aV\u56a3
aV\u6807
aV\u778e
aV\u83ab
aV\u60ed
aV\u8f88
aV\u768e
aV\u5f13
aV\u5723
aV\u652f
aV\u80a0
aV\u793e
aV\u6742
aV\u4fdd
aV\u7ee7
aV\u8bc9
aV\u5854
aV\u7891
aV\u71e5
aV\u846c
aV\u6b49
aV\u504f
aV\u5ae9
aV\u5815
aV\u4f5b
aV\u5f7b
aV\u8106
aV\u5e8f
aV\u5468
aV\u5999
aV\u5ba2
aV\u9970
aV\u641e
aV\u8046
aV\u9876
aV\u671f
aV\u70e6
aV\u8f6f
aV\u58f6
aV\u517b
aV\u4e18
aV\u573e
aV\u6bc1
aV\u5668
aV\u8749
aV\u7ae0
aV\u95ea
aV\u67f3
aV\u8c05
aV\u9713
aV\u56fe
aV\u7591
aV\u7eb7
aV\u59b9
aV\u6d01
aV\u83ca
aV\u5510
aV\u62b5
aV\u95fb
aV\u5ed3
aV\u73a9
aV\u793a
aV\u6c57
aV\u8273
aV\u7ed8
aV\u659c
aV\u6865
aV\u6fc0
aV\u5fe0
aV\u70ab
aV\u94c3
aV\u6362
aV\u73ed
aV\u76ef
aV\u96c4
aV\u6d69
aV\u9971
aV\u7ef4
aV\u5806
aV\u62cd
aV\u7f3a
aV\u9886
aV\u5543
aV\u79f0
aV\u8377
aV\u7b06
aV\u5e08
aV\u9002
aV\u8d2a
aV\u4e89
aV\u63e1
aV\u7bf1
aV\u8361
aV\u516d
aV\u5783
aV\u73ab
aV\u70ad
aV\u8c6a
aV\u95ef
aV\u8bfb
aV\u70c2
aV\u4f53
aV\u68d2
aV\u5df4
aV\u5385
aV\u72af
aV\u9501
aV\u62a4
aV\u71c3
aV\u82e5
aV\u906e
aV\u5988
aV\u6c11
aV\u6e10
aV\u76db
aV\u9e70
aV\u4f11
aV\u54ac
aV\u8bbe
aV\u706f
aV\u8bfe
aV\u818f
aV\u6309
aV\u62b9
aV\u8d3c
aV\u64cd
aV\u6676
aV\u5219
aV\u6323
aV\u8ba8
aV\u8239
aV\u76d6
aV\u8363
aV\u4e8f
aV\u5f04
aV\u6212
aV\u8150
aV\u7965
aV\u592b
aV\u9635
aV\u6c79
aV\u5c04
aV\u949f
aV\u8ba1
aV\u8ff9
aV\u677e
aV\u5e45
aV\u6653
aV\u796d
aV\u5802
aV\u6127
aV\u5435
aV\u5957
aV\u6977
aV\u592e
aV\u4e4c
aV\u7470
aV\u82d4
aV\u7089
aV\u79c3
aV\u8bc1
aV\u751c
aV\u79d8
aV\u6069
aV\u63a9
aV\u545c
aV\u8c37
aV\u853d
aV\u5175
aV\u5904
aV\u62e9
aV\u5174
aV\u5948
aV\u55dc
aV\u8865
aV\u6f5c
aV\u6b32
aV\u74e3
aV\u8870
aV\u54b8
aV\u5951
aV\u5dfe
aV\u6b87
aV\u9891
aV\u9910
aV\u6016
aV\u67af
aV\u9b3c
aV\u6cc9
aV\u7262
aV\u8180
aV\u51a0
aV\u672f
aV\u6041
aV\u8543
aV\u7fd4
aV\u80d6
aV\u626d
aV\u5377
aV\u4e34
aV\u57f9
aV\u60ac
aV\u7a3b
aV\u8bc6
aV\u914d
aV\u7565
aV\u7f69
aV\u626b
aV\u6e89
aV\u538b
aV\u9a91
aV\u5320
aV\u5524
aV\u793c
aV\u5f8a
aV\u7f15
aV\u6296
aV\u6cca
aV\u53e0
aV\u6a71
aV\u9177
aV\u94fa
aV\u62ac
aV\u5893
aV\u5224
aV\u7ea7
aV\u5237
aV\u6c1b
aV\u6a1f
aV\u58a8
aV\u8574
aV\u9677
aV\u7436
aV\u523a
aV\u5a6a
aV\u5178
aV\u5f7c
aV\u4e1d
aV\u99a8
aV\u964d
aV\u5e10
aV\u51a5
aV\u6d32
aV\u7435
aV\u9ebb
aV\u6e0a
aV\u636e
aV\u4e70
aV\u9aa8
aV\u91ba
aV\u7f51
aV\u578b
aV\u7fd8
aV\u6740
aV\u58d5
aV\u5954
aV\u5462
aV\u5de7
aV\u90c1
aV\u7537
aV\u6d47
aV\u53f8
aV\u8bad
aV\u5189
aV\u8e44
aV\u7410
aV\u9a8c
aV\u7529
aV\u8131
aV\u963f
aV\u5212
aV\u5026
aV\u94a9
aV\u51bb
aV\u5761
aV\u649e
aV\u6dd8
aV\u6eda
aV\u675f
aV\u6e83
aV\u978b
aV\u75d5
aV\u675e
aV\u5de5
aV\u6270
aV\u53e6
aV\u644a
aV\u6beb
aV\u533b
aV\u7455
aV\u5410
aV\u5760
aV\u4ed7
aV\u8d56
aV\u62df
aV\u8fed
aV\u52ff
aV\u8109
aV\u6e17
aV\u845b
aV\u6d2a
aV\u871c
aV\u7d20
aV\u6446
aV\u7ae5
aV\u7978
aV\u5ba4
aV\u8e48
aV\u5014
aV\u7d22
aV\u5824
aV\u54a7
aV\u9650
aV\u71d5
aV\u9510
aV\u8b66
aV\u6d82
aV\u5427
aV\u58e4
aV\u6175
aV\u5ba3
aV\u9632
aV\u804a
aV\u4e56
aV\u7af9
aV\u4f7b
aV\u81f4
aV\u5bf8
aV\u722c
aV\u5fb5
aV\u63cd
aV\u72d7
aV\u4eff
aV\u9080
aV\u5382
aV\u5a07
aV\u4e94
aV\u7c89
aV\u7a9d
aV\u9f9f
aV\u8d28
aV\u69bb
aV\u4ed5
aV\u5f69
aV\u6076
aV\u5e8a
aV\u62a2
aV\u6851
aV\u4ea2
aV\u4eea
aV\u60f6
aV\u52ab
aV\u7bb1
aV\u8bd1
aV\u7cdf
aV\u7f9e
aV\u5bc6
aV\u70ec
aV\u94c5
aV\u6ee9
aV\u5584
aV\u5907
aV\u63a0
aV\u80a2
aV\u8fa8
aV\u502d
aV\u67b8
aV\u5947
aV\u59dc
aV\u6cbb
aV\u8dd1
aV\u76d7
aV\u716e
aV\u9003
aV\u5782
aV\u539a
aV\u7f1d
aV\u68a8
aV\u542b
aV\u7edc
aV\u8f7d
aV\u6a2a
aV\u73af
aV\u7267
aV\u7384
aV\u5e1d
aV\u589e
aV\u5171
aV\u6ca7
aV\u95ed
aV\u8776
aV\u5417
aV\u752d
aV\u7a33
aV\u6cbc
aV\u5145
aV\u59ca
aV\u88d4
aV\u6cfc
aV\u9700
aV\u7597
aV\u65f7
aV\u6cfd
aV\u7184
aV\u810f
aV\u4e11
aV\u5398
aV\u5c1d
aV\u80ba
aV\u9875
aV\u6c7d
aV\u7981
aV\u6614
aV\u7bad
aV\u6860
aV\u6ce3
aV\u97f5
aV\u680b
aV\u8e0f
aV\u8715
aV\u901b
aV\u961f
aV\u8c23
aV\u9171
aV\u8c0e
aV\u7816
aV\u541e
aV\u8da3
aV\u74dc
aV\u5409
aV\u6cb9
aV\u60d1
aV\u535c
aV\u5170
aV\u5e05
aV\u7409
aV\u8292
aV\u8d23
aV\u8327
aV\u9175
aV\u873f
aV\u9e45
aV\u62d2
aV\u6469
aV\u7a00
aV\u8885
aV\u4f4e
aV\u5fd9
aV\u60e7
aV\u6668
aV\u7f6e
aV\u76c8
aV\u61d2
aV\u540a
aV\u4e4e
aV\u6052
aV\u53db
aV\u68a2
aV\u6251
aV\u7687
aV\u9189
aV\u8712
aV\u5d16
aV\u529f
aV\u66a7
aV\u5f99
aV\u6627
aV\u8bba
aV\u70c8
aV\u6551
aV\u6f20
aV\u6491
aV\u8e22
aV\u80a9
aV\u94b1
aV\u7334
aV\u5434
aV\u5fd7
aV\u5deb
aV\u786e
aV\u9e7f
aV\u58ee
aV\u4f2b
aV\u5706
aV\u5389
aV\u6467
aV\u56f0
aV\u9b54
aV\u5192
aV\u6df7
aV\u5984
aV\u7e41
aV\u9547
aV\u8dcc
aV\u5b54
aV\u5bbd
aV\u7a3c
aV\u6342
aV\u76cf
aV\u82d7
aV\u8d5e
aV\u63ed
aV\u5478
aV\u6382
aV\u8986
aV\u6c88
aV\u679a
aV\u53a2
aV\u82ac
aV\u9178
aV\u5d69
aV\u62ec
aV\u6682
aV\u6518
aV\u82ad
aV\u8db3
aV\u6846
aV\u8fdf
aV\u9897
aV\u5fff
aV\u538c
aV\u514b
aV\u54ce
aV\u56fa
aV\u5bfc
aV\u4f83
aV\u5e93
aV\u6c9f
aV\u4f1e
aV\u6d4a
aV\u8bf1
aV\u6280
aV\u5c94
aV\u7f29
aV\u8d35
aV\u7b51
aV\u8759
aV\u695d
aV\u8c0a
aV\u508d
aV\u8718
aV\u65af
aV\u5236
aV\u9738
aV\u64c5
aV\u714c
aV\u7cd5
aV\u8d1f
aV\u7425
aV\u832b
aV\u6a31
aV\u6743
aV\u7763
aV\u86ee
aV\u6989
aV\u6808
aV\u8018
aV\u67ad
aV\u9038
aV\u4ec7
aV\u564c
aV\u79e9
aV\u816e
aV\u8782
aV\u64c0
aV\u5561
aV\u9063
aV\u5de6
aV\u626f
aV\u6cf0
aV\u7f55
aV\u8304
aV\u6e32
aV\u62c5
aV\u5238
aV\u727a
aV\u987e
aV\u8682
aV\u6988
aV\u950b
aV\u8717
aV\u6d1b
aV\u5c51
aV\u8d5b
aV\u5265
aV\u6781
aV\u730e
aV\u7814
aV\u7ba9
aV\u642c
aV\u80af
aV\u8fb1
aV\u7b3c
aV\u7736
aV\u9f13
aV\u5fd1
aV\u6756
aV\u6258
aV\u74f7
aV\u68c2
aV\u4e1b
aV\u8d1d
aV\u602f
aV\u964b
aV\u6e5b
aV\u866b
aV\u4ef0
aV\u8681
aV\u8a89
aV\u67ab
aV\u626e
aV\u5378
aV\u9b13
aV\u809a
aV\u94a2
aV\u96b6
aV\u7239
aV\u64c2
aV\u5fd0
aV\u59d4
aV\u74e2
aV\u997f
aV\u9010
aV\u9493
aV\u9614
aV\u9ab7
aV\u90bb
aV\u82c7
aV\u85c9
aV\u6d6e
aV\u9976
aV\u557e
aV\u5413
aV\u829c
aV\u6e2f
aV\u83b2
aV\u5151
aV\u62dc
aV\u886b
aV\u6881
aV\u4e1a
aV\u8734
aV\u7cb9
aV\u88c1
aV\u84c9
aV\u5fcf
aV\u4fef
aV\u8774
aV\u77ff
aV\u8f84
aV\u8086
aV\u868a
aV\u9e25
aV\u4f2f
aV\u6cae
aV\u91c9
aV\u723d
aV\u8d43
aV\u60c6
aV\u52d2
aV\u67f4
aV\u5efa
aV\u53fc
aV\u8700
aV\u629b
aV\u7fb9
aV\u854a
aV\u756a
aV\u6a80
aV\u7a0b
aV\u590d
aV\u4e98
aV\u701a
aV\u53a6
aV\u914b
aV\u5ef7
aV\u5351
aV\u80dc
aV\u4fee
aV\u7ca5
aV\u6109
aV\u7f38
aV\u5c3a
aV\u763e
aV\u8d44
aV\u7554
aV\u4ed9
aV\u865e
aV\u5792
aV\u5740
aV\u5211
aV\u5594
aV\u5ba0
aV\u54aa
aV\u63b0
aV\u8bc0
aV\u5251
aV\u7238
aV\u9669
aV\u6687
aV\u732a
aV\u6234
aV\u8bc5
aV\u86c7
aV\u5254
aV\u7ef7
aV\u7792
aV\u50a8
aV\u5939
aV\u6843
aV\u6005
aV\u669d
aV\u5fb7
aV\u5938
aV\u503e
aV\u5ce1
aV\u8bef
aV\u81f3
aV\u707e
aV\u4f17
aV\u631f
aV\u52aa
aV\u4fac
aV\u6c41
aV\u9b4f
aV\u76d2
aV\u4f57
aV\u67dc
aV\u74e6
aV\u5f77
aV\u6208
aV\u609f
aV\u5fa1
aV\u59a5
aV\u68af
aV\u82b3
aV\u89c5
aV\u5537
aV\u6746
aV\u63c9
aV\u86db
aV\u695a
aV\u5ae3
aV\u6670
aV\u997a
aV\u6905
aV\u8309
aV\u5925
aV\u57a6
aV\u6731
aV\u60b4
aV\u9ab8
aV\u4e22
aV\u5de2
aV\u9965
aV\u767b
aV\u707f
aV\u822a
aV\u6885
aV\u000a
aV\u80da
aV\u4ec1
aV\u9893
aV\u6c42
aV\u6770
aV\u987a
aV\u4e01
aV\u6d17
aV\u9e21
aV\u84b2
aV\u89c4
aV\u82de
aV\u820c
aV\u5b9d
aV\u6da9
aV\u9644
aV\u5c48
aV\u7edf
aV\u67e5
aV\u70eb
aV\u7f8a
aV\u81c2
aV\u8725
aV\u78b0
aV\u6237
aV\u8dbe
aV\u59c6
aV\u514d
aV\u7b5d
aV\u5dde
aV\u89e6
aV\u5b87
aV\u4e95
aV\u4fbf
aV\u70c1
aV\u7bc7
aV\u7ef5
aV\u9605
aV\u7784
aV\u5598
aV\u5f1f
aV\u6da8
aV\u80b4
aV\u5c49
aV\u6bcd
aV\u5eca
aV\u64ce
aV\u9ecf
aV\u56da
aV\u8de8
aV\u7956
aV\u7eb3
aV\u75c5
aV\u4ed3
aV\u87f9
aV\u9017
aV\u759a
aV\u795d
aV\u8be6
aV\u6ee8
aV\u5c0a
aV\u962e
aV\u5ec9
aV\u8f68
aV\u66f9
aV\u697c
aV\u9082
aV\u7b1b
aV\u5e9e
aV\u8425
aV\u65a4
aV\u76ae
aV\u78b2
aV\u683d
aV\u73c0
aV\u7cca
aV\u785d
aV\u85e4
aV\u7b50
aV\u5c9b
aV\u8389
aV\u8fbd
aV\u906d
aV\u6bd5
aV\u58f3
aV\u5e9c
aV\u4e27
aV\u54c0
aV\u5949
aV\u526f
aV\u5cf0
aV\u9500
aV\u638f
aV\u6324
aV\u8c26
aV\u6f88
aV\u6bbf
aV\u5bdf
aV\u585e
aV\u593a
aV\u5496
aV\u9761
aV\u70ae
aV\u7eb2
aV\u8039
aV\u634f
aV\u5757
aV\u8e29
aV\u589f
aV\u4f26
aV\u892a
aV\u83b9
aV\u6b3e
aV\u86cb
aV\u5ddd
aV\u6f66
aV\u5b97
aV\u8721
aV\u80a4
aV\u9935
aV\u67b6
aV\u96c0
aV\u4f51
aV\u8165
aV\u5085
aV\u620e
aV\u9f9b
aV\u7eb1
aV\u8338
aV\u5144
aV\u68d5
aV\u6954
aV\u8760
aV\u556c
aV\u51ef
aV\u9ef1
aV\u9601
aV\u9005
aV\u5d07
aV\u8537
aV\u5a49
aV\u7ff0
aV\u6279
aV\u83f8
aV\u5589
aV\u8010
aV\u7f1a
aV\u8428
aV\u79c1
aV\u7fc5
aV\u574a
aV\u5956
aV\u7f5a
aV\u7d6e
aV\u66ff
aV\u857e
aV\u9488
aV\u7199
aV\u5996
aV\u7433
aV\u8d39
aV\u6cb8
aV\u633d
aV\u62bc
aV\u63d2
aV\u7a57
aV\u6267
aV\u61e6
aV\u586b
aV\u62fc
aV\u9881
aV\u529d
aV\u63a7
aV\u4f0f
aV\u57df
aV\u7272
aV\u62fd
aV\u7801
aV\u6f0f
aV\u6821
aV\u4e25
aV\u5347
aV\u575f
aV\u9675
aV\u5b81
aV\u5608
aV\u971e
aV\u8587
aV\u6628
aV\u8d3a
aV\u8be1
aV\u786c
aV\u7172
aV\u7709
aV\u690d
aV\u6613
aV\u51b2
aV\u9f20
aV\u8fce
aV\u5371
aV\u8877
aV\u87fe
aV\u5708
aV\u6012
aV\u6495
aV\u5c1a
aV\u8fa3
aV\u8822
aV\u5bab
aV\u4f38
aV\u663e
aV\u9cc5
aV\u91c7
aV\u8d64
aV\u72f1
aV\u55e8
aV\u867e
aV\u8713
aV\u5c9a
aV\u519c
aV\u6da4
aV\u82a6
aV\u5c45
aV\u7ad6
aV\u9cd6
aV\u59ec
aV\u5475
aV\u5b85
aV\u5506
aV\u6410
aV\u51c9
aV\u7f20
aV\u6566
aV\u7aef
aV\u4ef7
aV\u8d76
aV\u817e
aV\u7f2d
aV\u673d
aV\u623f
aV\u9b45
aV\u8863
aV\u65e6
aV\u60e8
aV\u5375
aV\u88f8
aV\u7a1a
aV\u5ead
aV\u9ac5
aV\u5446
aV\u6652
aV\u4e38
aV\u98d9
aV\u5a5a
aV\u60e9
aV\u6168
aV\u8015
aV\u973e
aV\u5a9a
aV\u7d2b
aV\u7235
aV\u6c61
aV\u76f2
aV\u5f81
aV\u7985
aV\u6293
aV\u5b99
aV\u82db
aV\u54c1
aV\u7532
aV\u51b5
aV\u7248
aV\u6ecb
aV\u87d1
aV\u82d3
aV\u6fe1
aV\u75bc
aV\u5288
aV\u8c8c
aV\u561b
aV\u8270
aV\u75b2
aV\u803f
aV\u72c8
aV\u8393
aV\u5e16
aV\u5c42
aV\u8154
aV\u56f1
aV\u50f5
aV\u5e01
aV\u708a
aV\u6194
aV\u5b98
aV\u541d
aV\u4ee4
aV\u77b0
aV\u873b
aV\u96c6
aV\u70ca
aV\u575b
aV\u6269
aV\u8bf8
aV\u817f
a.